ccopy_reg
_reconstructor
p1
(c__main__
Network
p2
c__builtin__
object
p3
NtRp4
(dp5
S'lang'
p6
S'danish'
p7
sS'segmentation_results'
p8
ccollections
OrderedDict
p9
((lp10
(lp11
S'boundary_precision'
p12
aF0.61148648648648651
aa(lp13
S'boundary_recall'
p14
aF0.5895765472312704
aa(lp15
S'boundary_F'
p16
aF0.60033167495854056
aa(lp17
S'word_precision'
p18
aF0.24662162162162163
aa(lp19
S'word_recall'
p20
aF0.23778501628664495
aa(lp21
S'word_F'
p22
aF0.24212271973466004
aatRp23
sS'num_train'
p24
I696692
sS'incoding'
p25
(dp26
S'1'
S'41'
p27
sS'0'
S'14'
p28
sS'3'
S'23'
p29
sS'2'
S'22'
p30
sS'5'
S'43'
p31
sS'4'
S'24'
p32
sS'7'
S'8'
sS'6'
S'9'
sS'9'
S'11'
p33
sS'8'
S'4'
sS'A'
S'5'
sS'E'
S'3'
sS'D'
S'40'
p34
sS'G'
S'34'
p35
sS'O'
S'13'
p36
sS'N'
S'38'
p37
sS'Q'
S'0'
sS'S'
S'27'
p38
sS'R'
S'35'
p39
sS'U'
S'12'
p40
sS'T'
S'42'
p41
sS'Y'
S'7'
sS'Z'
S'29'
p42
sS'b'
S'19'
p43
sS'e'
S'2'
sS'd'
S'20'
p44
sS'g'
S'21'
p45
sS'f'
S'25'
p46
sS'i'
S'1'
sS'h'
S'30'
p47
sS'k'
S'18'
p48
sS'j'
S'32'
p49
sS'm'
S'36'
p50
sS'l'
S'39'
p51
sS'o'
S'15'
p52
sS'n'
S'37'
p53
sS'p'
S'16'
p54
sS's'
S'26'
p55
sS'r'
S'33'
p56
sS'u'
S'10'
p57
sS't'
S'17'
p58
sS'w'
S'44'
p59
sS'v'
S'31'
p60
sS'y'
S'6'
sS'z'
S'28'
p61
ssS'experiment_results'
p62
(dp63
S'vocoid_errors'
p64
(lp65
F24.27901
aF14.53571
aF13.3849
aF37.793399999999998
aF25.06747
aF37.908000000000001
aF25.213310000000003
aF44.620260000000002
aF50.375280000000004
aF11.77847
aF40.330280000000002
aF13.36758
aF32.140140000000002
aF3.5361899999999999
aF22.601609999999997
aF6.1129899999999999
aF17.643040000000003
aF20.175509999999999
aF8.7929199999999987
aF26.613820000000004
aF33.067399999999999
aF10.2179
aF14.936989999999998
aF28.521339999999999
aF15.524480000000001
aF4.6748500000000002
aF31.238080000000004
aF14.268240000000002
aF17.093620000000001
aF7.20092
aF6.5855899999999989
aF29.49474
aF8.5476400000000012
aF26.980669999999996
aF25.159669999999998
aF6.2672299999999996
aF13.902439999999999
aF16.761320000000001
aF17.458220000000001
aF12.205249999999999
aF16.620509999999999
aF11.240959999999999
aF19.254309999999997
aF7.247399999999999
aF3.2820200000000002
aF22.080300000000001
aF11.16371
aF20.280279999999998
aF9.9618600000000015
aF9.7135499999999997
aF5.8107600000000001
aF22.688039999999997
aF14.316459999999999
aF16.001519999999999
aF15.05814
aF13.451180000000001
aF5.9653799999999997
aF30.373809999999999
aF24.44857
aF24.411149999999999
aF10.432510000000001
aF12.66079
aF7.3462800000000001
aF18.143970000000003
aF5.7776999999999994
aF11.690679999999999
aF20.321770000000001
aF14.195959999999999
aF26.62124
aF13.76803
aF6.0504600000000002
aF19.33596
asS'vocoid_reaction'
p66
F4.0455289528949718
sS'contoid_accuracy'
p67
F0.75
sS'vocoid_all_rts'
p68
(lp69
F1.9918672318413679
aF1.0483704447221256
aF2.4522145892731841
aF1.7991897232692415
aF0.80516692959858582
aF0.99578046708972023
aF0.62362593278201084
aF0.87073994063784599
aF7.4667320836969555
aF0.99340493465537616
aF0.94718265169916194
aF1.599573406162238
aF0.93087644463451746
aF1.3407999132578738
aF1.2279023926733852
aF0.78746548868028698
aF0.96371323651076368
aF0.83173216376497683
aF5.3628973584060837
aF2.8234950894446373
aF2.5895725478896932
aF1.1036024256032568
aF0.67459150518026112
aF1.7245515583163409
aF39.618642020055283
aF0.8442948152782912
aF8.9961128980570422
aF8.87057549658984
aF0.7443983492588423
aF652.85569214322322
aF5.1818667312905022
aF1.1803566318351424
aF1.4771215190986609
aF2.8174012906048338
aF1.5711744381364654
aF0.95541831319860004
asS'contoid_all_rts'
p70
(lp71
F2.5691901645342812
aF3.5104919321627817
aF0.98931965107696063
aF1.2939934142084359
aF3.3888684625503505
aF0.80448568745507931
aF2.053149287487638
aF0.78924289181903573
aF0.80184906205300421
aF1.3880315688134539
aF1.0078390660019914
aF0.77787408861998542
aF2.760056894125718
aF0.90086559345371331
aF1.1592838286438025
aF1.04966987828003
aF0.68723116009904706
aF1.0659143108022382
aF1.0402712741022353
aF1.5169992103984451
aF1.4835650843445376
aF1.2711361388022222
aF0.9721797872818625
aF2.017805246216879
aF2.2629493659432001
aF1.5274848902595233
aF8.5060105218205173
aF1.1157010049364613
aF0.69649614100706858
aF0.88831362145463566
aF4.5599997227369533
aF1.2279353633383046
aF1.0757233056455555
aF1.1751080600050849
aF9.8827522050716574
aF1.0645784661532693
asS'contoid_errors'
p72
(lp73
F31.705869999999997
aF21.375499999999999
aF12.86612
aF17.139879999999998
aF13.81504
aF42.048200000000001
aF23.82779
aF53.837849999999989
aF28.557749999999999
aF21.214289999999998
aF37.297919999999998
aF8.7058700000000009
aF13.39977
aF8.1514399999999991
aF16.911360000000002
aF3.7940800000000001
aF6.1872900000000008
aF26.685250000000003
aF12.590999999999999
aF26.769550000000002
aF19.563850000000002
aF6.5890899999999997
aF6.0380400000000005
aF27.76745
aF13.878159999999999
aF9.6211300000000008
aF18.537010000000002
aF5.3044700000000002
aF23.922260000000001
aF9.505040000000001
aF8.3019499999999997
aF23.405470000000001
aF3.8918000000000004
aF24.677870000000002
aF25.055960000000002
aF9.0551099999999991
aF4.1951200000000002
aF11.959960000000001
aF13.283150000000001
aF6.6975500000000006
aF20.613009999999999
aF10.221109999999999
aF24.670969999999997
aF10.74151
aF7.0379200000000006
aF21.943090000000002
aF15.344069999999999
aF25.453450000000004
aF6.8190000000000008
aF10.686950000000001
aF8.20608
aF16.19265
aF19.82349
aF17.622350000000001
aF16.482799999999997
aF6.2811599999999999
aF4.0556999999999999
aF24.695800000000002
aF22.272410000000001
aF6.2296299999999993
aF8.7858799999999988
aF10.94989
aF4.9444499999999998
aF11.736879999999999
aF6.0682099999999997
aF16.608359999999998
aF16.470500000000001
aF6.6379999999999999
aF21.094429999999999
aF19.062749999999998
aF9.00427
aF24.952929999999995
asS'contoid_reaction'
p74
F2.2069776107866699
sS'vocoid_accuracy'
p75
F0.61111111111111116
ssS'ticks'
p76
I1
sS'distributed'
p77
I00
sS'rand_range'
p78
F0.25
sS'rate'
p79
F0.10000000000000001
sS'seed'
p80
I25
sS'time'
p81
S'05/25 at 19:17:49'
p82
sS'hidden'
p83
I80
sS'_id'
p84
S'danish_l_25_80_1_95_1_25_696692'
p85
sS'momentum'
p86
F0.94999999999999996
sS'outcoding'
p87
g26
sb.