ccopy_reg
_reconstructor
p1
(c__main__
Network
p2
c__builtin__
object
p3
NtRp4
(dp5
S'lang'
p6
S'danish'
p7
sS'segmentation_results'
p8
ccollections
OrderedDict
p9
((lp10
(lp11
S'boundary_precision'
p12
aF0.62323943661971826
aa(lp13
S'boundary_recall'
p14
aF0.57654723127035834
aa(lp15
S'boundary_F'
p16
aF0.59898477157360408
aa(lp17
S'word_precision'
p18
aF0.28873239436619719
aa(lp19
S'word_recall'
p20
aF0.26710097719869708
aa(lp21
S'word_F'
p22
aF0.27749576988155672
aatRp23
sS'num_train'
p24
I696692
sS'incoding'
p25
(dp26
S'1'
S'41'
p27
sS'0'
S'14'
p28
sS'3'
S'23'
p29
sS'2'
S'22'
p30
sS'5'
S'43'
p31
sS'4'
S'24'
p32
sS'7'
S'8'
sS'6'
S'9'
sS'9'
S'11'
p33
sS'8'
S'4'
sS'A'
S'5'
sS'E'
S'3'
sS'D'
S'40'
p34
sS'G'
S'34'
p35
sS'O'
S'13'
p36
sS'N'
S'38'
p37
sS'Q'
S'0'
sS'S'
S'27'
p38
sS'R'
S'35'
p39
sS'U'
S'12'
p40
sS'T'
S'42'
p41
sS'Y'
S'7'
sS'Z'
S'29'
p42
sS'b'
S'19'
p43
sS'e'
S'2'
sS'd'
S'20'
p44
sS'g'
S'21'
p45
sS'f'
S'25'
p46
sS'i'
S'1'
sS'h'
S'30'
p47
sS'k'
S'18'
p48
sS'j'
S'32'
p49
sS'm'
S'36'
p50
sS'l'
S'39'
p51
sS'o'
S'15'
p52
sS'n'
S'37'
p53
sS'p'
S'16'
p54
sS's'
S'26'
p55
sS'r'
S'33'
p56
sS'u'
S'10'
p57
sS't'
S'17'
p58
sS'w'
S'44'
p59
sS'v'
S'31'
p60
sS'y'
S'6'
sS'z'
S'28'
p61
ssS'experiment_results'
p62
(dp63
S'vocoid_errors'
p64
(lp65
F22.675310000000003
aF11.237309999999999
aF8.7656600000000005
aF26.514780000000002
aF20.567259999999997
aF44.252519999999997
aF24.313480000000002
aF44.440809999999999
aF29.229419999999998
aF11.261409999999998
aF48.20232
aF14.438970000000001
aF29.894210000000001
aF2.2056400000000003
aF21.803720000000002
aF8.1901799999999998
aF11.047499999999999
aF20.760220000000004
aF10.992270000000001
aF19.669730000000001
aF21.621500000000001
aF24.519959999999998
aF21.119780000000002
aF37.754749999999994
aF22.787230000000001
aF4.8411100000000005
aF17.86074
aF7.7477399999999994
aF20.228819999999999
aF24.449639999999995
aF5.0993500000000003
aF34.792550000000006
aF8.9492700000000003
aF17.857399999999998
aF26.1493
aF2.3449300000000002
aF7.6054599999999999
aF14.996889999999999
aF15.38048
aF8.3864000000000001
aF22.761659999999999
aF13.48878
aF47.888120000000001
aF7.3542300000000012
aF1.37697
aF15.389489999999999
aF5.307199999999999
aF23.486499999999999
aF9.5171400000000013
aF11.787749999999999
aF2.7882800000000003
aF26.805670000000003
aF14.671250000000001
aF20.621089999999999
aF31.733090000000001
aF10.316929999999999
aF7.9900400000000005
aF17.794639999999998
aF32.542680000000004
aF15.180479999999999
aF7.5919499999999998
aF14.52838
aF8.5072600000000005
aF14.91615
aF6.6081500000000002
aF13.63537
aF22.844180000000001
aF11.322760000000001
aF12.4459
aF11.52233
aF10.52333
aF27.454839999999994
asS'vocoid_reaction'
p66
F2.2791064480961758
sS'contoid_accuracy'
p67
F0.58333333333333326
sS'vocoid_all_rts'
p68
(lp69
F1.4824541003671967
aF0.99386448454909293
aF1.3683569443611765
aF1.7079833738503818
aF1.1267477589337938
aF0.92765217314040216
aF0.57965886284484902
aF1.1016201517019084
aF1.637425973362765
aF1.7667612411926994
aF7.9596509870759036
aF1.7696013278052207
aF0.76975803126246789
aF1.2661168792643134
aF5.2926279727635901
aF0.67173460590303502
aF1.5046182532136374
aF0.5985083831246113
aF1.5289565077393685
aF1.699071214512845
aF1.9546483940264516
aF0.68143410365992507
aF0.59826712111740077
aF0.79193643319599749
aF4.6914463514209883
aF0.6160942134012064
aF2.9658226103559091
aF0.98173575468244545
aF1.3149276870040596
aF1.3743408093444378
aF1.5945039451129757
aF1.8274155118905149
aF1.440364753060243
aF1.4827573337314326
aF12.975859978128353
aF1.121523419943053
asS'contoid_all_rts'
p70
(lp71
F0.85703495201829594
aF1.04129614730751
aF0.83510472423627413
aF1.2368652200126431
aF0.87418465192476824
aF1.1424024715211605
aF0.72140016070993151
aF0.70813872047277626
aF0.98531392284409181
aF1.773475218302383
aF1.3093681121408072
aF0.81701823452220079
aF0.68778127190105709
aF0.9233528576786022
aF3.9731903624064451
aF0.76690390458565472
aF0.80714827728422633
aF0.80404252432298684
aF1.5315367656963748
aF1.0674001955352781
aF11.533789839642409
aF0.90815858459683796
aF0.61059744758537537
aF1.0930326220730828
aF0.89113787189620464
aF0.85821546408816229
aF1.4324449037546789
aF2.2493871897869688
aF0.70831726637926673
aF10.311488656376282
aF0.87930246108598542
aF1.0423462841424127
aF0.95254549930604859
aF2.3736520295162369
aF0.97461890045590294
aF1.3135777362318266
asS'contoid_errors'
p72
(lp73
F35.869079999999997
aF9.4371299999999998
aF9.16357
aF26.092510000000001
aF11.22949
aF44.739879999999999
aF18.137229999999999
aF42.751269999999998
aF36.832229999999996
aF10.029260000000001
aF17.867909999999998
aF6.9887800000000002
aF26.098500000000001
aF4.73081
aF22.700249999999997
aF3.9108100000000001
aF11.109850000000002
aF34.001939999999998
aF40.902319999999996
aF22.91122
aF20.309179999999998
aF9.0847200000000008
aF4.8558000000000003
aF20.172899999999998
aF21.676639999999999
aF3.4269500000000002
aF27.36477
aF8.1392000000000007
aF26.832409999999999
aF34.557990000000004
aF3.7974099999999997
aF18.025040000000001
aF5.6748900000000004
aF24.150949999999998
aF16.338740000000001
aF3.8094399999999999
aF9.4188899999999993
aF18.54982
aF19.238269999999996
aF6.9642700000000008
aF19.327999999999999
aF21.079709999999999
aF14.85796
aF4.3066200000000006
aF2.1033499999999998
aF21.121420000000001
aF4.8812100000000003
aF13.11214
aF4.1964400000000008
aF14.925239999999999
aF3.6142400000000001
aF13.703810000000001
aF17.651859999999999
aF8.5173900000000007
aF9.8772500000000001
aF15.52337
aF4.3272599999999999
aF25.099710000000002
aF10.436329999999998
aF9.4710300000000007
aF3.4176099999999998
aF12.427859999999999
aF4.1127799999999999
aF11.69609
aF5.0735600000000005
aF16.28472
aF13.06549
aF8.5188399999999991
aF20.403239999999997
aF6.5669599999999999
aF6.5449400000000004
aF14.58958
asS'contoid_reaction'
p74
F1.0107761959487314
sS'vocoid_accuracy'
p75
F0.69444444444444442
ssS'ticks'
p76
I1
sS'distributed'
p77
I00
sS'rand_range'
p78
F0.25
sS'rate'
p79
F0.10000000000000001
sS'seed'
p80
I14
sS'time'
p81
S'05/25 at 17:02:32'
p82
sS'hidden'
p83
I80
sS'_id'
p84
S'danish_l_14_80_1_95_1_25_696692'
p85
sS'momentum'
p86
F0.94999999999999996
sS'outcoding'
p87
g26
sb.