ccopy_reg
_reconstructor
p1
(c__main__
Network
p2
c__builtin__
object
p3
NtRp4
(dp5
S'lang'
p6
S'danish'
p7
sS'segmentation_results'
p8
ccollections
OrderedDict
p9
((lp10
(lp11
S'boundary_precision'
p12
aF0.6123778501628665
aa(lp13
S'boundary_recall'
p14
aF0.6123778501628665
aa(lp15
S'boundary_F'
p16
aF0.6123778501628665
aa(lp17
S'word_precision'
p18
aF0.30944625407166126
aa(lp19
S'word_recall'
p20
aF0.30944625407166126
aa(lp21
S'word_F'
p22
aF0.30944625407166126
aatRp23
sS'num_train'
p24
I696692
sS'incoding'
p25
(dp26
S'1'
S'0 0 0 0 0 1 0 0 1 0 0 0 0 0 0 0'
p27
sS'0'
S'0 1 1 0 0 1 0 0 0 0 0 0 0 0 0 0'
p28
sS'3'
S'0 0 0 1 0 1 0 0 1 0 0 0 0 0 0 0'
p29
sS'2'
S'0 0 0 1 0 1 0 1 0 0 0 0 0 0 0 0'
p30
sS'5'
S'0 1 1 0 0 1 0 0 0 0 0 1 0 0 0 0'
p31
sS'4'
S'0 0 0 1 0 1 0 0 0 0 1 0 0 0 0 0'
p32
sS'7'
S'0 1 1 0 0 1 0 1 0 0 0 0 0 1 0 0'
p33
sS'6'
S'0 1 1 0 0 1 0 1 0 0 0 1 0 1 0 0'
p34
sS'9'
S'0 1 1 0 0 1 0 1 0 0 1 1 0 0 0 0'
p35
sS'8'
S'0 1 1 0 0 1 0 0 0 0 0 1 0 1 0 0'
p36
sS'A'
S'0 1 1 0 0 1 0 0 0 0 0 1 1 0 0 0'
p37
sS'E'
S'0 1 1 0 0 1 0 0 0 0 0 0 0 1 0 0'
p38
sS'D'
S'0 1 1 0 0 1 0 0 1 0 0 0 1 0 0 0'
p39
sS'G'
S'0 0 0 0 0 1 0 0 1 0 0 0 0 0 0 1'
p40
sS'O'
S'0 1 1 0 0 1 0 1 0 0 0 1 1 0 0 0'
p41
sS'N'
S'0 0 1 1 0 1 0 0 0 0 1 0 0 0 0 0'
p42
sS'Q'
S'1'
sS'S'
S'0 0 0 0 0 0 1 0 0 1 0 0 0 1 1 0'
p43
sS'R'
S'0 1 1 0 0 1 0 0 1 0 0 0 0 0 0 1'
p44
sS'U'
S'0 1 1 0 0 1 0 1 0 0 0 1 0 0 0 0'
p45
sS'T'
S'0 0 0 0 0 0 1 0 1 0 0 0 0 0 0 0'
p46
sS'Y'
S'0 1 1 0 0 1 0 1 0 1 0 0 0 1 0 0'
p47
sS'Z'
S'0 0 0 0 0 1 0 0 0 1 0 0 0 1 1 0'
p48
sS'b'
S'0 0 0 1 0 0 0 1 0 0 0 0 0 0 0 0'
p49
sS'e'
S'0 1 1 0 0 1 0 0 0 1 0 0 0 1 0 0'
p50
sS'd'
S'0 0 0 1 0 0 0 0 1 0 0 0 0 0 0 0'
p51
sS'g'
S'0 0 0 1 0 0 0 0 0 0 1 0 0 0 0 0'
p52
sS'f'
S'0 0 0 0 0 0 1 1 0 0 0 0 0 0 0 0'
p53
sS'i'
S'0 1 1 0 0 1 0 0 0 1 0 0 1 1 0 0'
p54
sS'h'
S'0 0 0 0 0 0 1 0 0 0 0 0 0 0 0 0'
p55
sS'k'
S'0 0 0 1 0 0 1 0 0 0 1 0 0 0 0 0'
p56
sS'j'
S'0 1 1 0 0 1 0 0 0 1 0 0 1 1 0 0'
p57
sS'm'
S'0 0 1 1 0 1 0 1 0 0 0 0 0 0 0 0'
p58
sS'l'
S'0 0 1 0 1 1 0 0 1 0 0 0 1 0 0 0'
p59
sS'o'
S'0 1 1 0 0 1 0 1 0 0 1 1 1 0 0 0'
p60
sS'n'
S'0 0 1 1 0 1 0 0 1 0 0 0 0 0 0 0'
p61
sS'p'
S'0 0 0 1 0 0 1 1 0 0 0 0 0 0 0 0'
p62
sS's'
S'0 0 0 0 0 0 1 0 1 0 0 0 0 0 1 0'
p63
sS'r'
S'0 0 0 0 0 1 0 0 0 0 0 1 0 0 0 0'
p64
sS'u'
S'0 1 1 0 0 1 0 1 0 0 1 0 0 0 0 0'
p65
sS't'
S'0 0 0 1 0 0 1 0 1 0 0 0 0 0 1 0'
p66
sS'w'
S'0 1 1 0 0 1 0 1 0 0 1 0 0 0 0 0'
p67
sS'v'
S'0 0 0 0 0 1 0 1 0 0 0 0 0 0 0 0'
p68
sS'y'
S'0 1 1 0 0 1 0 1 0 1 0 0 1 1 0 0'
p69
sS'z'
S'0 0 0 0 0 1 0 0 1 0 0 0 0 0 1 0'
p70
ssS'experiment_results'
p71
(dp72
S'vocoid_errors'
p73
(lp74
F19.879100000000001
aF20.453479999999999
aF23.855800000000002
aF16.056899999999999
aF26.933570000000003
aF20.15626
aF23.603830000000002
aF27.260950000000001
aF21.500679999999999
aF26.770290000000003
aF28.889089999999999
aF20.629919999999998
aF17.23554
aF17.067739999999997
aF17.605039999999999
aF18.053039999999999
aF23.127090000000003
aF15.765079999999999
aF25.935699999999997
aF23.193080000000002
aF19.471019999999999
aF22.866380000000003
aF15.569749999999999
aF22.905619999999999
aF13.949979999999998
aF16.71808
aF12.88026
aF23.202289999999998
aF17.369989999999998
aF25.288740000000004
aF22.650659999999998
aF22.938780000000001
aF16.08249
aF20.373689999999996
aF22.150149999999996
aF13.633559999999999
aF21.207450000000001
aF12.710459999999999
aF11.93999
aF24.83343
aF15.246700000000001
aF23.257159999999999
aF23.263279999999998
aF15.20589
aF14.36223
aF22.140149999999998
aF14.775889999999999
aF21.84498
aF23.225549999999998
aF13.87012
aF20.88297
aF13.798999999999999
aF14.19693
aF13.34272
aF22.429190000000002
aF13.914849999999998
aF14.784030000000001
aF23.4267
aF22.633179999999999
aF21.68646
aF21.49287
aF13.85088
aF13.925790000000001
aF13.64129
aF14.904869999999999
aF16.018800000000002
aF21.773020000000002
aF14.346160000000001
aF24.40016
aF23.462220000000002
aF22.550440000000002
aF25.022169999999999
asS'vocoid_reaction'
p75
F9.3598757869544578
sS'contoid_accuracy'
p76
F0.41666666666666663
sS'vocoid_all_rts'
p77
(lp78
F35.109666074724181
aF2.5588672761543285
aF3.4740796864832788
aF6.9542126044537804
aF4.5801273718548403
aF2.9978199988618703
aF102.21477949940207
aF39.796964285714246
aF2.6414097508696663
aF8.9565415551553045
aF6.2345966259836887
aF2.6224135651258815
aF5.5395505942704331
aF1.7478417520584617
aF2.6935267561168095
aF79.115368596417383
aF4.2477838366890417
aF2.1008238038933431
aF1.9958779520747931
aF1.4260515424898244
aF2.4033488713507096
aF2.3871979636085636
aF2.346538663293015
aF2.5902110455518312
aF1.9825742910801538
aF2.4479190341009347
aF16.119952938972851
aF2.1342840431554286
aF2.2105859647539474
aF23.406941862430305
aF2.3124703120522274
aF48.448295254832821
aF13.880436831757788
aF2.4316588706398123
aF25.514627801351967
aF9.6233427599292902
asS'contoid_all_rts'
p79
(lp80
F554.40576150067773
aF2.6811049115452552
aF8.2241143746303749
aF6.5067156617191255
aF9.8404512713168852
aF2.5066480130383604
aF6.4149041087576677
aF121.63302686395487
aF1.872572414379303
aF4.7189915027991205
aF8.2984796622850059
aF3.0317917418837221
aF19.072733364409707
aF1.8718861761778287
aF2.7648998498546451
aF34.125643230846265
aF3.443698913442085
aF2.8343975602584366
aF1.982946442906117
aF1.4850476498008727
aF2.0868710777418253
aF2.6728573787636924
aF2.3473754838137268
aF2.6703231566434091
aF2.0561800405089996
aF3.0494514147254566
aF28.47731958762887
aF2.4534920568486891
aF1.6881332916449288
aF14.430963123552633
aF2.4178400283115193
aF53.20203707102236
aF3093.6690140844189
aF2.1487334237667262
aF11.558815827121817
aF24.367628788214951
asS'contoid_errors'
p81
(lp82
F24.848679999999998
aF24.803899999999999
aF28.198650000000001
aF19.334229999999998
aF24.422800000000002
aF27.584689999999998
aF26.260580000000001
aF30.632450000000002
aF30.343389999999999
aF33.591989999999996
aF24.037760000000002
aF16.04289
aF15.593579999999999
aF18.229899999999997
aF16.864139999999999
aF17.003360000000001
aF22.609500000000001
aF13.079969999999999
aF22.819849999999999
aF28.22869
aF20.117660000000001
aF22.69735
aF15.904259999999999
aF22.186079999999997
aF12.74981
aF13.436290000000001
aF13.71358
aF23.70973
aF17.724539999999998
aF25.55029
aF24.156580000000002
aF23.458929999999999
aF15.813580000000002
aF21.185589999999998
aF20.751989999999999
aF14.528380000000002
aF21.03294
aF12.56198
aF11.89711
aF23.974809999999998
aF14.575030000000002
aF23.759789999999999
aF23.056519999999999
aF15.789719999999999
aF14.99184
aF23.107050000000001
aF13.272849999999998
aF19.388459999999998
aF22.199120000000001
aF13.51463
aF19.83437
aF14.246359999999999
aF14.33508
aF13.84038
aF19.758980000000001
aF13.068940000000001
aF12.95815
aF23.864459999999998
aF19.79158
aF21.21227
aF20.11769
aF13.22297
aF14.631119999999999
aF14.35867
aF15.373049999999999
aF15.378019999999999
aF21.693629999999999
aF13.503440000000001
aF24.865639999999999
aF22.803609999999999
aF21.516190000000002
aF22.417670000000001
asS'contoid_reaction'
p83
F210.77712453942874
sS'vocoid_accuracy'
p84
F0.44444444444444442
ssS'ticks'
p85
I1
sS'distributed'
p86
I01
sS'rand_range'
p87
F0.25
sS'rate'
p88
F0.10000000000000001
sS'seed'
p89
I25
sS'time'
p90
S'05/25 at 19:13:01'
p91
sS'hidden'
p92
I80
sS'_id'
p93
S'danish_d_25_80_1_95_1_25_696692'
p94
sS'momentum'
p95
F0.94999999999999996
sS'outcoding'
p96
(dp97
S'1'
S'41'
p98
sS'0'
S'14'
p99
sS'3'
S'23'
p100
sS'2'
S'22'
p101
sS'5'
S'43'
p102
sS'4'
S'24'
p103
sS'7'
S'8'
sS'6'
S'9'
sS'9'
S'11'
p104
sS'8'
S'4'
sS'A'
S'5'
sS'E'
S'3'
sS'D'
S'40'
p105
sS'G'
S'34'
p106
sS'O'
S'13'
p107
sS'N'
S'38'
p108
sS'Q'
S'0'
sS'S'
S'27'
p109
sS'R'
S'35'
p110
sS'U'
S'12'
p111
sS'T'
S'42'
p112
sS'Y'
S'7'
sS'Z'
S'29'
p113
sS'b'
S'19'
p114
sS'e'
S'2'
sS'd'
S'20'
p115
sS'g'
S'21'
p116
sS'f'
S'25'
p117
sS'i'
S'1'
sS'h'
S'30'
p118
sS'k'
S'18'
p119
sS'j'
S'32'
p120
sS'm'
S'36'
p121
sS'l'
S'39'
p122
sS'o'
S'15'
p123
sS'n'
S'37'
p124
sS'p'
S'16'
p125
sS's'
S'26'
p126
sS'r'
S'33'
p127
sS'u'
S'10'
p128
sS't'
S'17'
p129
sS'w'
S'44'
p130
sS'v'
S'31'
p131
sS'y'
S'6'
sS'z'
S'28'
p132
ssb.