ccopy_reg
_reconstructor
p1
(c__main__
Network
p2
c__builtin__
object
p3
NtRp4
(dp5
S'lang'
p6
S'danish'
p7
sS'segmentation_results'
p8
ccollections
OrderedDict
p9
((lp10
(lp11
S'boundary_precision'
p12
aF0.59178082191780823
aa(lp13
S'boundary_recall'
p14
aF0.70358306188925079
aa(lp15
S'boundary_F'
p16
aF0.64285714285714279
aa(lp17
S'word_precision'
p18
aF0.34520547945205482
aa(lp19
S'word_recall'
p20
aF0.41042345276872966
aa(lp21
S'word_F'
p22
aF0.37499999999999994
aatRp23
sS'num_train'
p24
I696692
sS'incoding'
p25
(dp26
S'1'
S'41'
p27
sS'0'
S'14'
p28
sS'3'
S'23'
p29
sS'2'
S'22'
p30
sS'5'
S'43'
p31
sS'4'
S'24'
p32
sS'7'
S'8'
sS'6'
S'9'
sS'9'
S'11'
p33
sS'8'
S'4'
sS'A'
S'5'
sS'E'
S'3'
sS'D'
S'40'
p34
sS'G'
S'34'
p35
sS'O'
S'13'
p36
sS'N'
S'38'
p37
sS'Q'
S'0'
sS'S'
S'27'
p38
sS'R'
S'35'
p39
sS'U'
S'12'
p40
sS'T'
S'42'
p41
sS'Y'
S'7'
sS'Z'
S'29'
p42
sS'b'
S'19'
p43
sS'e'
S'2'
sS'd'
S'20'
p44
sS'g'
S'21'
p45
sS'f'
S'25'
p46
sS'i'
S'1'
sS'h'
S'30'
p47
sS'k'
S'18'
p48
sS'j'
S'32'
p49
sS'm'
S'36'
p50
sS'l'
S'39'
p51
sS'o'
S'15'
p52
sS'n'
S'37'
p53
sS'p'
S'16'
p54
sS's'
S'26'
p55
sS'r'
S'33'
p56
sS'u'
S'10'
p57
sS't'
S'17'
p58
sS'w'
S'44'
p59
sS'v'
S'31'
p60
sS'y'
S'6'
sS'z'
S'28'
p61
ssS'experiment_results'
p62
(dp63
S'vocoid_errors'
p64
(lp65
F31.153309999999998
aF14.15837
aF9.0159099999999999
aF48.139069999999997
aF12.967970000000001
aF28.555030000000002
aF19.413420000000002
aF39.881370000000004
aF44.386380000000003
aF14.222879999999998
aF28.525699999999997
aF8.7839600000000004
aF11.45792
aF2.3675999999999999
aF16.557619999999996
aF5.4209800000000001
aF20.629710000000003
aF14.666640000000001
aF13.34076
aF32.406149999999997
aF29.880300000000005
aF25.399370000000001
aF13.410080000000001
aF20.780669999999997
aF21.877459999999999
aF3.5666600000000002
aF15.399630000000002
aF18.049160000000001
aF11.500529999999999
aF8.5490200000000005
aF6.9190200000000006
aF42.742629999999998
aF4.5995400000000002
aF19.281089999999999
aF16.312670000000001
aF6.2136399999999998
aF13.60629
aF20.622240000000001
aF12.9725
aF12.026820000000001
aF12.651
aF5.4608100000000004
aF26.395519999999998
aF4.0094700000000003
aF3.6313900000000001
aF19.225929999999998
aF8.6353200000000001
aF18.407440000000001
aF10.862769999999999
aF10.25576
aF5.2777899999999995
aF16.004909999999999
aF7.7419799999999999
aF6.1877399999999998
aF18.331510000000002
aF10.607000000000001
aF6.6972300000000002
aF17.712809999999998
aF14.212959999999999
aF13.214119999999998
aF5.2110099999999999
aF17.273149999999998
aF5.9478100000000005
aF14.05968
aF5.5823900000000002
aF8.4764599999999994
aF18.292400000000001
aF12.14315
aF14.930399999999999
aF14.34764
aF13.873289999999999
aF19.530239999999999
asS'vocoid_reaction'
p66
F3.0929593884431617
sS'contoid_accuracy'
p67
F0.61111111111111116
sS'vocoid_all_rts'
p68
(lp69
F1.3330932618767701
aF0.73044943199884671
aF1.3319702368503106
aF1.4484789634526174
aF0.97152618230642973
aF0.94494355614044157
aF0.76045287734645195
aF0.98676979771277529
aF2.9595787069412229
aF1.1997370628138215
aF6.1683255484910458
aF2.3194038740453622
aF0.69478449876575565
aF6.3122119772186043
aF3.396490271081583
aF0.69314133891028862
aF0.81328708481052769
aF1.1152709715685567
aF2.4393367968699882
aF13.217642331444049
aF1.2594806256858304
aF0.67910573772505656
aF0.73286291227570677
aF1.3836690503186617
aF17.395537141068548
aF0.99200437768944505
aF4.4811998147004317
aF1.8731615338707566
aF1.1079779730164008
aF13.729466180769673
aF0.93201372227482027
aF1.2332230422824824
aF2.4289063498809642
aF2.4747367565150218
aF25.120152378337622
aF2.9524328480895177
asS'contoid_all_rts'
p70
(lp71
F1.259029273813326
aF2.0027207310548922
aF0.90500412246950546
aF1.7232110614120297
aF2.8328583889763235
aF0.74443920573859101
aF0.85025944220929806
aF0.87560135799613004
aF1.5341590382638208
aF0.73937970413629639
aF8.1619259950974712
aF0.96526277169973396
aF0.71152947551527668
aF94.882450972794715
aF1.1302704411783642
aF1.0614540661289444
aF4.1585383771757209
aF0.92560539124621322
aF10.120948802254572
aF1.3941133828356442
aF1.2847093439213104
aF4.4902737678399562
aF1.1005091139251264
aF0.73173236842904776
aF1.6671706580643975
aF1.6614818988695073
aF0.68048220373986323
aF3.3681640307422134
aF0.82056066847087217
aF3.0398513123020368
aF2.5238414874181143
aF0.97328443799605768
aF0.81721590169231595
aF4.7302344525005875
aF4.3614736309050164
aF2.2781996297077503
asS'contoid_errors'
p72
(lp73
F25.940950000000001
aF11.19364
aF9.3535800000000009
aF15.578009999999999
aF11.08182
aF38.44406
aF20.086410000000001
aF36.507459999999995
aF21.473140000000001
aF15.030279999999999
aF38.324260000000002
aF7.5278499999999999
aF16.797429999999999
aF4.3572800000000003
aF16.827359999999999
aF4.5946299999999995
aF13.357860000000001
aF26.2745
aF5.1548599999999993
aF26.6891
aF16.409929999999999
aF18.551679999999998
aF9.4349800000000013
aF29.713800000000003
aF12.341560000000001
aF2.1547999999999998
aF12.305289999999998
aF12.17628
aF22.79017
aF8.810789999999999
aF7.547699999999999
aF20.990829999999999
aF17.755459999999999
aF13.94408
aF24.479839999999999
aF7.3082999999999991
aF11.306000000000001
aF10.2415
aF9.3540600000000005
aF4.4155700000000007
aF18.833769999999998
aF8.2809200000000001
aF19.4968
aF15.589839999999999
aF5.6546100000000008
aF15.070969999999999
aF4.7289300000000001
aF25.13579
aF5.0871599999999999
aF9.4457000000000004
aF6.2250899999999998
aF11.5847
aF17.40549
aF2.6611000000000002
aF14.273680000000001
aF10.583639999999999
aF4.2748400000000002
aF17.61035
aF18.350659999999998
aF13.166639999999999
aF8.0201600000000006
aF11.983000000000001
aF3.9111800000000003
aF12.175090000000001
aF3.2887200000000001
aF13.656169999999999
aF12.970039999999999
aF10.490220000000001
aF13.440029999999998
aF10.67543
aF12.13984
aF18.96688
asS'contoid_reaction'
p74
F5.7252811900428053
sS'vocoid_accuracy'
p75
F0.58333333333333326
ssS'ticks'
p76
I1
sS'distributed'
p77
I00
sS'rand_range'
p78
F0.25
sS'rate'
p79
F0.10000000000000001
sS'seed'
p80
I15
sS'time'
p81
S'05/25 at 17:22:33'
p82
sS'hidden'
p83
I80
sS'_id'
p84
S'danish_l_15_80_1_95_1_25_696692'
p85
sS'momentum'
p86
F0.94999999999999996
sS'outcoding'
p87
g26
sb.