ccopy_reg
_reconstructor
p1
(c__main__
Network
p2
c__builtin__
object
p3
NtRp4
(dp5
S'lang'
p6
S'danish'
p7
sS'segmentation_results'
p8
ccollections
OrderedDict
p9
((lp10
(lp11
S'boundary_precision'
p12
aF0.61300309597523217
aa(lp13
S'boundary_recall'
p14
aF0.64495114006514653
aa(lp15
S'boundary_F'
p16
aF0.62857142857142856
aa(lp17
S'word_precision'
p18
aF0.26625386996904027
aa(lp19
S'word_recall'
p20
aF0.28013029315960913
aa(lp21
S'word_F'
p22
aF0.27301587301587299
aatRp23
sS'num_train'
p24
I696692
sS'incoding'
p25
(dp26
S'1'
S'0 0 0 0 0 1 0 0 1 0 0 0 0 0 0 0'
p27
sS'0'
S'0 1 1 0 0 1 0 0 0 0 0 0 0 0 0 0'
p28
sS'3'
S'0 0 0 1 0 1 0 0 1 0 0 0 0 0 0 0'
p29
sS'2'
S'0 0 0 1 0 1 0 1 0 0 0 0 0 0 0 0'
p30
sS'5'
S'0 1 1 0 0 1 0 0 0 0 0 1 0 0 0 0'
p31
sS'4'
S'0 0 0 1 0 1 0 0 0 0 1 0 0 0 0 0'
p32
sS'7'
S'0 1 1 0 0 1 0 1 0 0 0 0 0 1 0 0'
p33
sS'6'
S'0 1 1 0 0 1 0 1 0 0 0 1 0 1 0 0'
p34
sS'9'
S'0 1 1 0 0 1 0 1 0 0 1 1 0 0 0 0'
p35
sS'8'
S'0 1 1 0 0 1 0 0 0 0 0 1 0 1 0 0'
p36
sS'A'
S'0 1 1 0 0 1 0 0 0 0 0 1 1 0 0 0'
p37
sS'E'
S'0 1 1 0 0 1 0 0 0 0 0 0 0 1 0 0'
p38
sS'D'
S'0 1 1 0 0 1 0 0 1 0 0 0 1 0 0 0'
p39
sS'G'
S'0 0 0 0 0 1 0 0 1 0 0 0 0 0 0 1'
p40
sS'O'
S'0 1 1 0 0 1 0 1 0 0 0 1 1 0 0 0'
p41
sS'N'
S'0 0 1 1 0 1 0 0 0 0 1 0 0 0 0 0'
p42
sS'Q'
S'1'
sS'S'
S'0 0 0 0 0 0 1 0 0 1 0 0 0 1 1 0'
p43
sS'R'
S'0 1 1 0 0 1 0 0 1 0 0 0 0 0 0 1'
p44
sS'U'
S'0 1 1 0 0 1 0 1 0 0 0 1 0 0 0 0'
p45
sS'T'
S'0 0 0 0 0 0 1 0 1 0 0 0 0 0 0 0'
p46
sS'Y'
S'0 1 1 0 0 1 0 1 0 1 0 0 0 1 0 0'
p47
sS'Z'
S'0 0 0 0 0 1 0 0 0 1 0 0 0 1 1 0'
p48
sS'b'
S'0 0 0 1 0 0 0 1 0 0 0 0 0 0 0 0'
p49
sS'e'
S'0 1 1 0 0 1 0 0 0 1 0 0 0 1 0 0'
p50
sS'd'
S'0 0 0 1 0 0 0 0 1 0 0 0 0 0 0 0'
p51
sS'g'
S'0 0 0 1 0 0 0 0 0 0 1 0 0 0 0 0'
p52
sS'f'
S'0 0 0 0 0 0 1 1 0 0 0 0 0 0 0 0'
p53
sS'i'
S'0 1 1 0 0 1 0 0 0 1 0 0 1 1 0 0'
p54
sS'h'
S'0 0 0 0 0 0 1 0 0 0 0 0 0 0 0 0'
p55
sS'k'
S'0 0 0 1 0 0 1 0 0 0 1 0 0 0 0 0'
p56
sS'j'
S'0 1 1 0 0 1 0 0 0 1 0 0 1 1 0 0'
p57
sS'm'
S'0 0 1 1 0 1 0 1 0 0 0 0 0 0 0 0'
p58
sS'l'
S'0 0 1 0 1 1 0 0 1 0 0 0 1 0 0 0'
p59
sS'o'
S'0 1 1 0 0 1 0 1 0 0 1 1 1 0 0 0'
p60
sS'n'
S'0 0 1 1 0 1 0 0 1 0 0 0 0 0 0 0'
p61
sS'p'
S'0 0 0 1 0 0 1 1 0 0 0 0 0 0 0 0'
p62
sS's'
S'0 0 0 0 0 0 1 0 1 0 0 0 0 0 1 0'
p63
sS'r'
S'0 0 0 0 0 1 0 0 0 0 0 1 0 0 0 0'
p64
sS'u'
S'0 1 1 0 0 1 0 1 0 0 1 0 0 0 0 0'
p65
sS't'
S'0 0 0 1 0 0 1 0 1 0 0 0 0 0 1 0'
p66
sS'w'
S'0 1 1 0 0 1 0 1 0 0 1 0 0 0 0 0'
p67
sS'v'
S'0 0 0 0 0 1 0 1 0 0 0 0 0 0 0 0'
p68
sS'y'
S'0 1 1 0 0 1 0 1 0 1 0 0 1 1 0 0'
p69
sS'z'
S'0 0 0 0 0 1 0 0 1 0 0 0 0 0 1 0'
p70
ssS'experiment_results'
p71
(dp72
S'vocoid_errors'
p73
(lp74
F44.21284
aF40.023240000000001
aF29.496099999999998
aF22.518979999999999
aF27.970280000000002
aF22.427109999999999
aF24.373449999999998
aF27.024330000000003
aF21.385509999999996
aF27.691200000000002
aF31.44089
aF21.39414
aF18.148880000000002
aF16.76014
aF17.279769999999999
aF20.47438
aF23.421870000000002
aF15.39512
aF26.556349999999998
aF22.466699999999996
aF19.348660000000002
aF22.840300000000003
aF15.59315
aF24.425439999999998
aF13.465200000000001
aF17.166460000000001
aF13.058529999999999
aF22.763979999999997
aF17.18216
aF25.123339999999999
aF22.53679
aF23.221690000000002
aF15.947709999999999
aF20.396420000000003
aF21.781879999999997
aF13.505680000000002
aF21.363869999999999
aF12.81109
aF11.92353
aF24.765800000000002
aF15.22429
aF23.192360000000001
aF23.171339999999997
aF15.278529999999998
aF14.409419999999999
aF22.124080000000003
aF15.059050000000001
aF21.892430000000001
aF23.23366
aF13.86074
aF20.863620000000001
aF13.765400000000001
aF14.18666
aF13.31165
aF22.432020000000001
aF13.898150000000001
aF14.89077
aF23.426950000000001
aF22.616040000000002
aF21.677250000000001
aF21.48892
aF13.848560000000001
aF13.932649999999999
aF13.6471
aF14.9114
aF16.02083
aF21.779979999999998
aF14.33653
aF24.404559999999996
aF23.46612
aF22.554939999999998
aF25.02627
asS'vocoid_reaction'
p75
F6.8935631568549072
sS'contoid_accuracy'
p76
F0.38888888888888884
sS'vocoid_all_rts'
p77
(lp78
F10.052997899560822
aF3.7275466094893028
aF4.5458997288555079
aF9.6944750422501045
aF3.8914623141955884
aF2.6294587802025533
aF12.568594553336098
aF5.9090389750235532
aF2.417976765191391
aF5.9935507928551299
aF6.0414246600451369
aF2.26547078956873
aF4.138004355273611
aF1.8454842382372794
aF2.6636784457725424
aF33.405227040443741
aF4.0847942437245814
aF2.1318696986539725
aF1.9978860674540913
aF1.4284596882015403
aF2.4106621804276318
aF2.435752919429202
aF2.3677971550269219
aF2.7037483646453149
aF1.9788070313200155
aF2.4392749168101302
aF15.713140421252337
aF2.1285870302687995
aF2.2444301783701839
aF23.590627296839525
aF2.3125533351831593
aF48.292330590089492
aF13.940595621174843
aF2.4260598244093807
aF25.505455862921536
aF9.6266403110875434
asS'contoid_all_rts'
p79
(lp80
F3.7007957489886931
aF1.748639326615524
aF3.7278110526717829
aF2.1235483787122447
aF16.368748265701175
aF17.420206490558787
aF5.6174950270843267
aF12.829852930677525
aF2.1563638788619333
aF7.7345469828201887
aF150.3690298507459
aF3.1708610230844232
aF32.909926657838412
aF1.9580894882696187
aF2.6164947163842265
aF61.623631814865533
aF3.3359216612889409
aF2.814417993455347
aF2.0084906639065991
aF1.4757773527369868
aF2.0485085466732551
aF2.617213630448576
aF2.3458851357091945
aF2.6370601318290263
aF2.0544384947983416
aF3.0478366751418777
aF28.047244956887138
aF2.4500974065687529
aF1.6885724078017954
aF14.286972395245465
aF2.4209522342870589
aF53.119239504725876
aF10678.625000022254
aF2.1478491048562147
aF11.578832471285308
aF24.351823943974061
asS'contoid_errors'
p81
(lp82
F23.11253
aF30.333400000000005
aF37.955929999999995
aF21.076419999999999
aF29.886649999999996
aF22.817589999999996
aF23.736049999999999
aF38.355910000000002
aF24.018619999999999
aF25.5322
aF28.253529999999998
aF29.92334
aF17.775849999999998
aF14.87011
aF14.9369
aF13.81634
aF24.696639999999995
aF15.399480000000001
aF24.785410000000006
aF21.775480000000002
aF20.216450000000002
aF20.082450000000001
aF16.409690000000001
aF22.553660000000001
aF13.11941
aF12.72673
aF13.553700000000001
aF22.849219999999999
aF17.08661
aF25.159679999999998
aF23.838079999999998
aF23.454360000000001
aF15.890690000000001
aF21.494050000000001
aF20.632020000000004
aF14.40709
aF21.03688
aF12.650609999999999
aF11.820440000000001
aF23.93431
aF14.605130000000001
aF24.036869999999997
aF23.187830000000002
aF15.749189999999999
aF14.991190000000001
aF23.112599999999997
aF13.21184
aF19.394090000000002
aF22.201800000000002
aF13.510339999999999
aF19.842270000000003
aF14.24949
aF14.335570000000001
aF13.833400000000001
aF19.77704
aF13.073179999999999
aF12.970130000000001
aF23.882490000000001
aF19.787890000000001
aF21.22315
aF20.105440000000002
aF13.22226
aF14.636979999999999
aF14.364000000000001
aF15.376500000000002
aF15.377939999999999
aF21.70148
aF13.50559
aF24.870920000000002
aF22.811870000000003
aF21.524840000000001
aF22.427280000000003
asS'contoid_reaction'
p83
F783.90060789652887
sS'vocoid_accuracy'
p84
F0.5
ssS'ticks'
p85
I1
sS'distributed'
p86
I01
sS'rand_range'
p87
F0.25
sS'rate'
p88
F0.10000000000000001
sS'seed'
p89
I0
sS'time'
p90
S'05/25 at 14:31:28'
p91
sS'hidden'
p92
I80
sS'_id'
p93
S'danish_d_0_80_1_95_1_25_696692'
p94
sS'momentum'
p95
F0.94999999999999996
sS'outcoding'
p96
(dp97
S'1'
S'41'
p98
sS'0'
S'14'
p99
sS'3'
S'23'
p100
sS'2'
S'22'
p101
sS'5'
S'43'
p102
sS'4'
S'24'
p103
sS'7'
S'8'
sS'6'
S'9'
sS'9'
S'11'
p104
sS'8'
S'4'
sS'A'
S'5'
sS'E'
S'3'
sS'D'
S'40'
p105
sS'G'
S'34'
p106
sS'O'
S'13'
p107
sS'N'
S'38'
p108
sS'Q'
S'0'
sS'S'
S'27'
p109
sS'R'
S'35'
p110
sS'U'
S'12'
p111
sS'T'
S'42'
p112
sS'Y'
S'7'
sS'Z'
S'29'
p113
sS'b'
S'19'
p114
sS'e'
S'2'
sS'd'
S'20'
p115
sS'g'
S'21'
p116
sS'f'
S'25'
p117
sS'i'
S'1'
sS'h'
S'30'
p118
sS'k'
S'18'
p119
sS'j'
S'32'
p120
sS'm'
S'36'
p121
sS'l'
S'39'
p122
sS'o'
S'15'
p123
sS'n'
S'37'
p124
sS'p'
S'16'
p125
sS's'
S'26'
p126
sS'r'
S'33'
p127
sS'u'
S'10'
p128
sS't'
S'17'
p129
sS'w'
S'44'
p130
sS'v'
S'31'
p131
sS'y'
S'6'
sS'z'
S'28'
p132
ssb.