ccopy_reg
_reconstructor
p1
(c__main__
Network
p2
c__builtin__
object
p3
NtRp4
(dp5
S'lang'
p6
S'danish'
p7
sS'segmentation_results'
p8
ccollections
OrderedDict
p9
((lp10
(lp11
S'boundary_precision'
p12
aF0.65189873417721522
aa(lp13
S'boundary_recall'
p14
aF0.67100977198697065
aa(lp15
S'boundary_F'
p16
aF0.6613162118780096
aa(lp17
S'word_precision'
p18
aF0.31645569620253167
aa(lp19
S'word_recall'
p20
aF0.32573289902280128
aa(lp21
S'word_F'
p22
aF0.32102728731942209
aatRp23
sS'num_train'
p24
I696692
sS'incoding'
p25
(dp26
S'1'
S'0 0 0 0 0 1 0 0 1 0 0 0 0 0 0 0'
p27
sS'0'
S'0 1 1 0 0 1 0 0 0 0 0 0 0 0 0 0'
p28
sS'3'
S'0 0 0 1 0 1 0 0 1 0 0 0 0 0 0 0'
p29
sS'2'
S'0 0 0 1 0 1 0 1 0 0 0 0 0 0 0 0'
p30
sS'5'
S'0 1 1 0 0 1 0 0 0 0 0 1 0 0 0 0'
p31
sS'4'
S'0 0 0 1 0 1 0 0 0 0 1 0 0 0 0 0'
p32
sS'7'
S'0 1 1 0 0 1 0 1 0 0 0 0 0 1 0 0'
p33
sS'6'
S'0 1 1 0 0 1 0 1 0 0 0 1 0 1 0 0'
p34
sS'9'
S'0 1 1 0 0 1 0 1 0 0 1 1 0 0 0 0'
p35
sS'8'
S'0 1 1 0 0 1 0 0 0 0 0 1 0 1 0 0'
p36
sS'A'
S'0 1 1 0 0 1 0 0 0 0 0 1 1 0 0 0'
p37
sS'E'
S'0 1 1 0 0 1 0 0 0 0 0 0 0 1 0 0'
p38
sS'D'
S'0 1 1 0 0 1 0 0 1 0 0 0 1 0 0 0'
p39
sS'G'
S'0 0 0 0 0 1 0 0 1 0 0 0 0 0 0 1'
p40
sS'O'
S'0 1 1 0 0 1 0 1 0 0 0 1 1 0 0 0'
p41
sS'N'
S'0 0 1 1 0 1 0 0 0 0 1 0 0 0 0 0'
p42
sS'Q'
S'1'
sS'S'
S'0 0 0 0 0 0 1 0 0 1 0 0 0 1 1 0'
p43
sS'R'
S'0 1 1 0 0 1 0 0 1 0 0 0 0 0 0 1'
p44
sS'U'
S'0 1 1 0 0 1 0 1 0 0 0 1 0 0 0 0'
p45
sS'T'
S'0 0 0 0 0 0 1 0 1 0 0 0 0 0 0 0'
p46
sS'Y'
S'0 1 1 0 0 1 0 1 0 1 0 0 0 1 0 0'
p47
sS'Z'
S'0 0 0 0 0 1 0 0 0 1 0 0 0 1 1 0'
p48
sS'b'
S'0 0 0 1 0 0 0 1 0 0 0 0 0 0 0 0'
p49
sS'e'
S'0 1 1 0 0 1 0 0 0 1 0 0 0 1 0 0'
p50
sS'd'
S'0 0 0 1 0 0 0 0 1 0 0 0 0 0 0 0'
p51
sS'g'
S'0 0 0 1 0 0 0 0 0 0 1 0 0 0 0 0'
p52
sS'f'
S'0 0 0 0 0 0 1 1 0 0 0 0 0 0 0 0'
p53
sS'i'
S'0 1 1 0 0 1 0 0 0 1 0 0 1 1 0 0'
p54
sS'h'
S'0 0 0 0 0 0 1 0 0 0 0 0 0 0 0 0'
p55
sS'k'
S'0 0 0 1 0 0 1 0 0 0 1 0 0 0 0 0'
p56
sS'j'
S'0 1 1 0 0 1 0 0 0 1 0 0 1 1 0 0'
p57
sS'm'
S'0 0 1 1 0 1 0 1 0 0 0 0 0 0 0 0'
p58
sS'l'
S'0 0 1 0 1 1 0 0 1 0 0 0 1 0 0 0'
p59
sS'o'
S'0 1 1 0 0 1 0 1 0 0 1 1 1 0 0 0'
p60
sS'n'
S'0 0 1 1 0 1 0 0 1 0 0 0 0 0 0 0'
p61
sS'p'
S'0 0 0 1 0 0 1 1 0 0 0 0 0 0 0 0'
p62
sS's'
S'0 0 0 0 0 0 1 0 1 0 0 0 0 0 1 0'
p63
sS'r'
S'0 0 0 0 0 1 0 0 0 0 0 1 0 0 0 0'
p64
sS'u'
S'0 1 1 0 0 1 0 1 0 0 1 0 0 0 0 0'
p65
sS't'
S'0 0 0 1 0 0 1 0 1 0 0 0 0 0 1 0'
p66
sS'w'
S'0 1 1 0 0 1 0 1 0 0 1 0 0 0 0 0'
p67
sS'v'
S'0 0 0 0 0 1 0 1 0 0 0 0 0 0 0 0'
p68
sS'y'
S'0 1 1 0 0 1 0 1 0 1 0 0 1 1 0 0'
p69
sS'z'
S'0 0 0 0 0 1 0 0 1 0 0 0 0 0 1 0'
p70
ssS'experiment_results'
p71
(dp72
S'vocoid_errors'
p73
(lp74
F23.72268
aF23.323439999999998
aF27.229029999999998
aF19.186410000000002
aF27.810450000000003
aF18.53623
aF21.007729999999999
aF27.802070000000001
aF19.515649999999997
aF25.346469999999997
aF28.209129999999998
aF21.27739
aF17.171060000000001
aF15.5571
aF16.152450000000002
aF18.293419999999998
aF24.271299999999997
aF16.420850000000002
aF26.29241
aF23.033430000000003
aF19.550460000000001
aF22.623819999999998
aF16.088139999999999
aF23.314810000000001
aF13.947509999999999
aF17.137270000000001
aF13.240410000000001
aF22.961519999999997
aF17.265920000000001
aF25.249200000000002
aF22.777610000000003
aF22.927510000000005
aF15.863
aF20.389810000000001
aF22.016490000000001
aF13.48823
aF21.265679999999996
aF12.73264
aF11.924199999999999
aF24.813850000000002
aF15.224590000000001
aF23.199159999999999
aF23.24897
aF15.26262
aF14.41126
aF22.12351
aF14.84022
aF21.865199999999998
aF23.223990000000001
aF13.87584
aF20.89237
aF13.784789999999999
aF14.19849
aF13.330109999999999
aF22.437170000000002
aF13.908810000000001
aF14.809700000000001
aF23.43094
aF22.634689999999999
aF21.68496
aF21.491619999999998
aF13.85121
aF13.932179999999999
aF13.646660000000001
aF14.90901
aF16.020399999999999
aF21.774850000000001
aF14.344730000000002
aF24.404579999999996
aF23.466820000000002
aF22.554880000000001
aF25.024439999999998
asS'vocoid_reaction'
p75
F14.627465198517687
sS'contoid_accuracy'
p76
F0.52777777777777779
sS'vocoid_all_rts'
p77
(lp78
F58.919597234745652
aF2.8855920085743216
aF2.4986834472332977
aF3.5919456488783297
aF3.8469820711323619
aF3.5695597353622621
aF10.139086470544497
aF8.0444541492874873
aF2.5917081186428819
aF7.5676806853678205
aF6.8612658458494993
aF2.7262176078332065
aF4.8725891603129998
aF1.8620265586954583
aF2.6627601687526932
aF152.45203468979082
aF4.0042336656497604
aF2.0815922591478211
aF1.992157542915538
aF1.4250988195955667
aF2.4091424365200886
aF2.4110882944023238
aF2.3686194041946256
aF2.6124928469547251
aF1.9843407519134799
aF2.4394491514692764
aF15.850549298694114
aF2.1308891744719971
aF2.217815534656268
aF23.332762995798834
aF2.3128883135852663
aF48.295811151583379
aF13.914741899783175
aF2.4306188863706106
aF25.524334584542057
aF9.6331573235718171
asS'contoid_all_rts'
p79
(lp80
F18.464399714838077
aF3.1804109175612947
aF5.767934421046391
aF50.037326312452613
aF6.7787274316638459
aF2.2840432438897298
aF4.6160338560322662
aF5.7206131639638818
aF1.831362878508032
aF6.3581017174357877
aF6.2422498852042221
aF2.9435651869975521
aF49.489889599070551
aF1.8748803671317233
aF2.7893476531220505
aF91.613423234903948
aF3.3882140518152921
aF2.8379568117026355
aF2.006027048802121
aF1.4889183027064039
aF2.0827998487554926
aF2.6791843747673005
aF2.3493872777086908
aF2.6412838721371332
aF2.0592840699338408
aF3.0407329361301563
aF28.315823840234629
aF2.4543131272209209
aF1.689449197939445
aF14.467458732365513
aF2.4163405038436752
aF53.410062267418404
aF2333.7169954473002
aF2.1484822068467038
aF11.558580266066778
aF24.40138373720092
asS'contoid_errors'
p81
(lp82
F29.527760000000001
aF27.970750000000002
aF31.584440000000001
aF23.002669999999998
aF23.99286
aF28.547370000000001
aF28.128780000000003
aF28.696610000000003
aF28.22784
aF32.72363
aF26.071339999999999
aF16.706780000000002
aF15.512920000000001
aF19.28182
aF17.10059
aF14.351569999999999
aF23.35163
aF13.335330000000001
aF23.102420000000002
aF27.046090000000003
aF20.508790000000001
aF24.080350000000003
aF15.729839999999999
aF22.167090000000002
aF12.90489
aF12.646740000000001
aF13.877189999999999
aF23.970570000000002
aF17.89725
aF25.714869999999998
aF23.770790000000005
aF23.512729999999998
aF15.787959999999998
aF21.254299999999997
aF20.700939999999999
aF14.49926
aF20.964470000000002
aF12.598850000000001
aF11.901790000000002
aF23.93695
aF14.567520000000002
aF23.771160000000002
aF23.055
aF15.803139999999999
aF15.00554
aF23.119330000000001
aF13.231250000000001
aF19.41037
aF22.21218
aF13.53312
aF19.860750000000003
aF14.251530000000001
aF14.342500000000001
aF13.84477
aF19.762080000000001
aF13.072850000000001
aF12.967279999999999
aF23.869200000000003
aF19.791469999999997
aF21.20844
aF20.125519999999995
aF13.22457
aF14.631730000000001
aF14.360320000000002
aF15.375900000000001
aF15.382490000000002
aF21.692419999999998
aF13.501909999999999
aF24.872510000000002
aF22.80987
aF21.522239999999996
aF22.422699999999999
asS'contoid_reaction'
p83
F133.86683398776094
sS'vocoid_accuracy'
p84
F0.44444444444444442
ssS'ticks'
p85
I1
sS'distributed'
p86
I01
sS'rand_range'
p87
F0.25
sS'rate'
p88
F0.10000000000000001
sS'seed'
p89
I15
sS'time'
p90
S'05/25 at 17:12:38'
p91
sS'hidden'
p92
I80
sS'_id'
p93
S'danish_d_15_80_1_95_1_25_696692'
p94
sS'momentum'
p95
F0.94999999999999996
sS'outcoding'
p96
(dp97
S'1'
S'41'
p98
sS'0'
S'14'
p99
sS'3'
S'23'
p100
sS'2'
S'22'
p101
sS'5'
S'43'
p102
sS'4'
S'24'
p103
sS'7'
S'8'
sS'6'
S'9'
sS'9'
S'11'
p104
sS'8'
S'4'
sS'A'
S'5'
sS'E'
S'3'
sS'D'
S'40'
p105
sS'G'
S'34'
p106
sS'O'
S'13'
p107
sS'N'
S'38'
p108
sS'Q'
S'0'
sS'S'
S'27'
p109
sS'R'
S'35'
p110
sS'U'
S'12'
p111
sS'T'
S'42'
p112
sS'Y'
S'7'
sS'Z'
S'29'
p113
sS'b'
S'19'
p114
sS'e'
S'2'
sS'd'
S'20'
p115
sS'g'
S'21'
p116
sS'f'
S'25'
p117
sS'i'
S'1'
sS'h'
S'30'
p118
sS'k'
S'18'
p119
sS'j'
S'32'
p120
sS'm'
S'36'
p121
sS'l'
S'39'
p122
sS'o'
S'15'
p123
sS'n'
S'37'
p124
sS'p'
S'16'
p125
sS's'
S'26'
p126
sS'r'
S'33'
p127
sS'u'
S'10'
p128
sS't'
S'17'
p129
sS'w'
S'44'
p130
sS'v'
S'31'
p131
sS'y'
S'6'
sS'z'
S'28'
p132
ssb.