ccopy_reg
_reconstructor
p1
(c__main__
Network
p2
c__builtin__
object
p3
NtRp4
(dp5
S'lang'
p6
S'danish'
p7
sS'segmentation_results'
p8
ccollections
OrderedDict
p9
((lp10
(lp11
S'boundary_precision'
p12
aF0.59202453987730064
aa(lp13
S'boundary_recall'
p14
aF0.62866449511400646
aa(lp15
S'boundary_F'
p16
aF0.60979462875197477
aa(lp17
S'word_precision'
p18
aF0.30061349693251532
aa(lp19
S'word_recall'
p20
aF0.31921824104234525
aa(lp21
S'word_F'
p22
aF0.30963665086887832
aatRp23
sS'num_train'
p24
I696692
sS'incoding'
p25
(dp26
S'1'
S'0 0 0 0 0 1 0 0 1 0 0 0 0 0 0 0'
p27
sS'0'
S'0 1 1 0 0 1 0 0 0 0 0 0 0 0 0 0'
p28
sS'3'
S'0 0 0 1 0 1 0 0 1 0 0 0 0 0 0 0'
p29
sS'2'
S'0 0 0 1 0 1 0 1 0 0 0 0 0 0 0 0'
p30
sS'5'
S'0 1 1 0 0 1 0 0 0 0 0 1 0 0 0 0'
p31
sS'4'
S'0 0 0 1 0 1 0 0 0 0 1 0 0 0 0 0'
p32
sS'7'
S'0 1 1 0 0 1 0 1 0 0 0 0 0 1 0 0'
p33
sS'6'
S'0 1 1 0 0 1 0 1 0 0 0 1 0 1 0 0'
p34
sS'9'
S'0 1 1 0 0 1 0 1 0 0 1 1 0 0 0 0'
p35
sS'8'
S'0 1 1 0 0 1 0 0 0 0 0 1 0 1 0 0'
p36
sS'A'
S'0 1 1 0 0 1 0 0 0 0 0 1 1 0 0 0'
p37
sS'E'
S'0 1 1 0 0 1 0 0 0 0 0 0 0 1 0 0'
p38
sS'D'
S'0 1 1 0 0 1 0 0 1 0 0 0 1 0 0 0'
p39
sS'G'
S'0 0 0 0 0 1 0 0 1 0 0 0 0 0 0 1'
p40
sS'O'
S'0 1 1 0 0 1 0 1 0 0 0 1 1 0 0 0'
p41
sS'N'
S'0 0 1 1 0 1 0 0 0 0 1 0 0 0 0 0'
p42
sS'Q'
S'1'
sS'S'
S'0 0 0 0 0 0 1 0 0 1 0 0 0 1 1 0'
p43
sS'R'
S'0 1 1 0 0 1 0 0 1 0 0 0 0 0 0 1'
p44
sS'U'
S'0 1 1 0 0 1 0 1 0 0 0 1 0 0 0 0'
p45
sS'T'
S'0 0 0 0 0 0 1 0 1 0 0 0 0 0 0 0'
p46
sS'Y'
S'0 1 1 0 0 1 0 1 0 1 0 0 0 1 0 0'
p47
sS'Z'
S'0 0 0 0 0 1 0 0 0 1 0 0 0 1 1 0'
p48
sS'b'
S'0 0 0 1 0 0 0 1 0 0 0 0 0 0 0 0'
p49
sS'e'
S'0 1 1 0 0 1 0 0 0 1 0 0 0 1 0 0'
p50
sS'd'
S'0 0 0 1 0 0 0 0 1 0 0 0 0 0 0 0'
p51
sS'g'
S'0 0 0 1 0 0 0 0 0 0 1 0 0 0 0 0'
p52
sS'f'
S'0 0 0 0 0 0 1 1 0 0 0 0 0 0 0 0'
p53
sS'i'
S'0 1 1 0 0 1 0 0 0 1 0 0 1 1 0 0'
p54
sS'h'
S'0 0 0 0 0 0 1 0 0 0 0 0 0 0 0 0'
p55
sS'k'
S'0 0 0 1 0 0 1 0 0 0 1 0 0 0 0 0'
p56
sS'j'
S'0 1 1 0 0 1 0 0 0 1 0 0 1 1 0 0'
p57
sS'm'
S'0 0 1 1 0 1 0 1 0 0 0 0 0 0 0 0'
p58
sS'l'
S'0 0 1 0 1 1 0 0 1 0 0 0 1 0 0 0'
p59
sS'o'
S'0 1 1 0 0 1 0 1 0 0 1 1 1 0 0 0'
p60
sS'n'
S'0 0 1 1 0 1 0 0 1 0 0 0 0 0 0 0'
p61
sS'p'
S'0 0 0 1 0 0 1 1 0 0 0 0 0 0 0 0'
p62
sS's'
S'0 0 0 0 0 0 1 0 1 0 0 0 0 0 1 0'
p63
sS'r'
S'0 0 0 0 0 1 0 0 0 0 0 1 0 0 0 0'
p64
sS'u'
S'0 1 1 0 0 1 0 1 0 0 1 0 0 0 0 0'
p65
sS't'
S'0 0 0 1 0 0 1 0 1 0 0 0 0 0 1 0'
p66
sS'w'
S'0 1 1 0 0 1 0 1 0 0 1 0 0 0 0 0'
p67
sS'v'
S'0 0 0 0 0 1 0 1 0 0 0 0 0 0 0 0'
p68
sS'y'
S'0 1 1 0 0 1 0 1 0 1 0 0 1 1 0 0'
p69
sS'z'
S'0 0 0 0 0 1 0 0 1 0 0 0 0 0 1 0'
p70
ssS'experiment_results'
p71
(dp72
S'vocoid_errors'
p73
(lp74
F43.9253
aF37.591639999999998
aF33.796229999999994
aF18.242130000000003
aF30.093809999999998
aF27.237669999999998
aF27.996169999999999
aF32.998829999999998
aF20.65053
aF25.038019999999999
aF30.65795
aF22.538180000000001
aF19.588509999999999
aF19.613610000000001
aF20.119230000000002
aF20.131640000000001
aF23.080749999999998
aF14.632390000000001
aF24.357679999999998
aF22.579360000000001
aF19.819009999999999
aF23.144030000000001
aF14.523969999999998
aF22.036069999999999
aF13.229880000000001
aF16.450810000000001
aF12.619730000000001
aF23.364620000000002
aF17.355809999999998
aF25.075500000000002
aF22.463920000000002
aF23.045729999999999
aF16.28867
aF20.334389999999999
aF22.367360000000001
aF13.72486
aF21.12809
aF12.701599999999999
aF11.94877
aF24.872239999999998
aF15.274379999999999
aF23.276269999999997
aF23.293309999999998
aF15.206
aF14.373799999999999
aF22.157939999999996
aF14.799209999999999
aF21.845039999999997
aF23.22842
aF13.881180000000001
aF20.884529999999998
aF13.80559
aF14.194289999999999
aF13.34693
aF22.428300000000004
aF13.91863
aF14.785820000000001
aF23.424280000000003
aF22.640940000000001
aF21.68647
aF21.50188
aF13.853339999999999
aF13.924909999999999
aF13.64048
aF14.9046
aF16.026150000000001
aF21.77862
aF14.34967
aF24.406040000000004
aF23.465580000000003
aF22.556039999999999
aF25.030439999999999
asS'vocoid_reaction'
p75
F7.9877297886793244
sS'contoid_accuracy'
p76
F0.55555555555555558
sS'vocoid_all_rts'
p77
(lp78
F6.4352159730708607
aF1.6728180994078741
aF10.036531822669758
aF6.0962567913869838
aF5.206684231758933
aF3.2757165535476989
aF780.91872509954248
aF1621.7111200645763
aF2.2319799345671827
aF13.197017409690064
aF6.4605686582336306
aF2.4334100983746221
aF4.6074720655214501
aF1.6744866629625805
aF2.7482521966555638
aF39.110405458826953
aF4.5261486212590096
aF2.088065953138559
aF2.0073417282878157
aF1.4245790797672764
aF2.4088465350061052
aF2.3802296437257877
aF2.3465495224906037
aF2.6004211001400832
aF1.9850565514526215
aF2.4502340745930895
aF16.251191937311209
aF2.1356251182478276
aF2.211626840895252
aF23.220955085020993
aF2.3112397921694861
aF48.457247828991548
aF13.789287147251562
aF2.4315879094623059
aF25.451172830317041
aF9.6157613967022328
asS'contoid_all_rts'
p79
(lp80
F13.347390243359698
aF2.7181284788181781
aF16.8614445750447
aF4.8851188654466764
aF8.3814583159922531
aF4.5004177440238804
aF6.3985650811545813
aF29.473614433257289
aF1.8285922478387855
aF6.8077623267239877
aF7.6019480056980067
aF3.0614362756571625
aF432.64146832047595
aF1.8508188789608981
aF2.7530990900920003
aF32.627992379269337
aF3.3786165759159439
aF2.8448885864394433
aF2.0105471057029933
aF1.4923232006694169
aF2.0743924055150424
aF2.6426994188686841
aF2.3376912666696934
aF2.6697168279630548
aF2.0601427961751839
aF3.048734189665006
aF28.985814216644343
aF2.4547205920831314
aF1.6862171390271754
aF14.43344078150951
aF2.4158447474690394
aF53.500369099029285
aF3051.0714285718718
aF2.149307781640736
aF11.564523484918304
aF24.337221668328361
asS'contoid_errors'
p81
(lp82
F37.338380000000001
aF34.641959999999997
aF39.743049999999997
aF27.39331
aF29.370920000000002
aF31.166050000000002
aF27.080170000000003
aF33.255640000000007
aF26.512280000000001
aF29.876159999999999
aF25.256810000000002
aF20.205869999999997
aF14.231350000000003
aF16.644029999999997
aF16.16507
aF15.62576
aF23.935459999999996
aF13.65652
aF23.006679999999999
aF26.654039999999998
aF19.942270000000001
aF22.75027
aF16.086870000000001
aF22.367280000000001
aF12.890779999999999
aF12.92061
aF13.736180000000001
aF23.904960000000003
aF17.848330000000001
aF25.770010000000003
aF23.995930000000001
aF23.27159
aF15.780720000000001
aF21.26277
aF20.74239
aF14.541170000000001
aF20.999169999999999
aF12.634790000000001
aF11.906379999999999
aF23.904870000000003
aF14.557949999999998
aF23.804659999999998
aF23.11336
aF15.75874
aF14.977679999999999
aF23.127949999999998
aF13.27014
aF19.386209999999998
aF22.195670000000003
aF13.525969999999999
aF19.84477
aF14.252699999999997
aF14.331580000000001
aF13.84553
aF19.76191
aF13.07366
aF12.95514
aF23.876529999999999
aF19.797189999999997
aF21.218029999999999
aF20.12379
aF13.22226
aF14.630319999999999
aF14.359389999999999
aF15.374879999999999
aF15.379919999999998
aF21.694889999999997
aF13.506
aF24.866310000000002
aF22.805199999999999
aF21.517859999999999
aF22.420559999999998
asS'contoid_reaction'
p83
F182.0045416099247
sS'vocoid_accuracy'
p84
F0.44444444444444442
ssS'ticks'
p85
I1
sS'distributed'
p86
I01
sS'rand_range'
p87
F0.25
sS'rate'
p88
F0.10000000000000001
sS'seed'
p89
I10
sS'time'
p90
S'05/25 at 16:08:30'
p91
sS'hidden'
p92
I80
sS'_id'
p93
S'danish_d_10_80_1_95_1_25_696692'
p94
sS'momentum'
p95
F0.94999999999999996
sS'outcoding'
p96
(dp97
S'1'
S'41'
p98
sS'0'
S'14'
p99
sS'3'
S'23'
p100
sS'2'
S'22'
p101
sS'5'
S'43'
p102
sS'4'
S'24'
p103
sS'7'
S'8'
sS'6'
S'9'
sS'9'
S'11'
p104
sS'8'
S'4'
sS'A'
S'5'
sS'E'
S'3'
sS'D'
S'40'
p105
sS'G'
S'34'
p106
sS'O'
S'13'
p107
sS'N'
S'38'
p108
sS'Q'
S'0'
sS'S'
S'27'
p109
sS'R'
S'35'
p110
sS'U'
S'12'
p111
sS'T'
S'42'
p112
sS'Y'
S'7'
sS'Z'
S'29'
p113
sS'b'
S'19'
p114
sS'e'
S'2'
sS'd'
S'20'
p115
sS'g'
S'21'
p116
sS'f'
S'25'
p117
sS'i'
S'1'
sS'h'
S'30'
p118
sS'k'
S'18'
p119
sS'j'
S'32'
p120
sS'm'
S'36'
p121
sS'l'
S'39'
p122
sS'o'
S'15'
p123
sS'n'
S'37'
p124
sS'p'
S'16'
p125
sS's'
S'26'
p126
sS'r'
S'33'
p127
sS'u'
S'10'
p128
sS't'
S'17'
p129
sS'w'
S'44'
p130
sS'v'
S'31'
p131
sS'y'
S'6'
sS'z'
S'28'
p132
ssb.