ccopy_reg
_reconstructor
p1
(cnetwork
Network
p2
c__builtin__
object
p3
NtRp4
(dp5
S'lang'
p6
S'danish'
p7
sS'segmentation_results'
p8
(dp9
S'word_recall'
p10
F0.34853420195439738
sS'boundary_recall'
p11
F0.6384364820846905
sS'boundary_F'
p12
F0.65008291873963509
sS'word_precision'
p13
F0.36148648648648651
sS'boundary_precision'
p14
F0.66216216216216217
sS'word_F'
p15
F0.35489220563847429
ssS'num_train'
p16
I696692
sS'incoding'
p17
(dp18
S'1'
S'41'
p19
sS'0'
S'14'
p20
sS'3'
S'23'
p21
sS'2'
S'22'
p22
sS'5'
S'43'
p23
sS'4'
S'24'
p24
sS'7'
S'8'
sS'6'
S'9'
sS'9'
S'11'
p25
sS'8'
S'4'
sS'A'
S'5'
sS'E'
S'3'
sS'D'
S'40'
p26
sS'G'
S'34'
p27
sS'O'
S'13'
p28
sS'N'
S'38'
p29
sS'Q'
S'0'
sS'S'
S'27'
p30
sS'R'
S'35'
p31
sS'U'
S'12'
p32
sS'T'
S'42'
p33
sS'Y'
S'7'
sS'Z'
S'29'
p34
sS'b'
S'19'
p35
sS'e'
S'2'
sS'd'
S'20'
p36
sS'g'
S'21'
p37
sS'f'
S'25'
p38
sS'i'
S'1'
sS'h'
S'30'
p39
sS'k'
S'18'
p40
sS'j'
S'32'
p41
sS'm'
S'36'
p42
sS'l'
S'39'
p43
sS'o'
S'15'
p44
sS'n'
S'37'
p45
sS'p'
S'16'
p46
sS's'
S'26'
p47
sS'r'
S'33'
p48
sS'u'
S'10'
p49
sS't'
S'17'
p50
sS'w'
S'44'
p51
sS'v'
S'31'
p52
sS'y'
S'6'
sS'z'
S'28'
p53
ssS'experiment_results'
p54
(dp55
S'vocoid_errors'
p56
(lp57
F20.350029999999997
aF14.95792
aF9.9544899999999998
aF22.065089999999998
aF15.73828
aF22.62528
aF23.93355
aF40.575090000000003
aF39.051389999999998
aF14.867210000000002
aF29.597800000000003
aF5.3501599999999998
aF17.584489999999999
aF6.6518500000000005
aF17.302490000000002
aF8.3811199999999992
aF7.9031599999999997
aF13.96744
aF8.9869400000000006
aF25.232980000000001
aF25.53556
aF10.394069999999999
aF10.82023
aF27.1492
aF12.114569999999999
aF6.8768799999999999
aF13.358429999999998
aF7.1024100000000008
aF12.28622
aF7.19611
aF4.0796999999999999
aF19.84835
aF6.4296899999999999
aF18.95476
aF32.583689999999997
aF6.6880100000000002
aF7.1775600000000006
aF12.282220000000001
aF12.889559999999999
aF6.52536
aF12.135660000000001
aF33.058810000000001
aF15.532970000000001
aF5.9843600000000006
aF4.0840800000000002
aF16.696710000000003
aF5.5549600000000003
aF23.681749999999997
aF4.3523499999999995
aF11.05814
aF5.2984800000000005
aF12.346419999999998
aF10.98709
aF23.399359999999998
aF13.495559999999999
aF10.453770000000002
aF6.2365199999999996
aF18.37321
aF30.14941
aF6.6774399999999998
aF3.3601999999999999
aF9.7480499999999992
aF9.1773999999999987
aF11.264180000000001
aF6.4079199999999998
aF7.67957
aF22.737919999999999
aF9.8861000000000008
aF16.191700000000001
aF5.8454100000000002
aF7.2692899999999998
aF22.786049999999999
asS'vocoid_reaction'
p58
F1.6070562148037135
sS'contoid_accuracy'
p59
F0.66666666666666674
sS'vocoid_all_rts'
p60
(lp61
F3.2740383634606873
aF1.3219650554060081
aF2.7852156236387393
aF1.9381812019801048
aF1.1147493940253506
aF0.72064662787801193
aF1.1084394986023505
aF1.4394431572729296
aF1.8032313811367549
aF1.0531772665831181
aF1.1864628249927847
aF1.1626400807889294
aF1.8129604844883913
aF1.6352920866621277
aF1.9137435143837758
aF0.75872221147656904
aF1.0133456339964568
aF0.7582674021303939
aF1.9060799348046686
aF1.525322899971717
aF1.0800111359905178
aF1.126725774746272
aF0.82380875360650396
aF0.80645028711647249
aF1.1490435877055498
aF1.251777115015168
aF1.3851797455259998
aF3.9367165386170684
aF1.0138567434778345
aF0.7844857078464228
aF1.0260298848595379
aF4.8978761536913273
aF5.5390594896394436
aF1.2692373531530945
aF1.064976431165181
aF0.96847988884277392
asS'contoid_all_rts'
p62
(lp63
F1.3987562138581719
aF1.1170699132850215
aF0.84912189678940664
aF0.99546738129973888
aF1.1231088008907781
aF0.61648577000215143
aF0.7450339433586296
aF0.78448088431424012
aF0.69739602312798687
aF0.71736522980989015
aF1.8480337980336414
aF1.5009580120075587
aF0.76009299408569952
aF0.73669200238705546
aF0.72320493464890734
aF0.67065201360112658
aF2.3750301441560522
aF0.73743593214676095
aF0.84844769773496365
aF1.0892757337336354
aF0.72014013608033522
aF2.1731975197125384
aF0.60936455855104166
aF0.82153426173692701
aF1.1835002801835453
aF0.87979897498712289
aF0.85547373614337607
aF3.8584639151146605
aF0.73753401641837346
aF0.82294412177293574
aF1.2439737845111405
aF0.99609797835084379
aF0.79448837629433
aF1.2838715282609692
aF0.67671372389600182
aF0.99063551270139616
asS'contoid_errors'
p64
(lp65
F37.432079999999999
aF17.71808
aF14.46626
aF37.909729999999996
aF12.596730000000001
aF48.677910000000004
aF11.869590000000001
aF35.825940000000003
aF30.232689999999998
aF11.60628
aF32.176450000000003
aF3.3570500000000001
aF18.857060000000001
aF3.7112400000000001
aF19.37773
aF4.29169
aF5.6986100000000004
aF34.567529999999998
aF4.6284600000000005
aF25.92193
aF22.456289999999999
aF12.892420000000001
aF14.05294
aF28.09243
aF14.707440000000002
aF3.03573
aF26.587999999999997
aF5.0887099999999998
aF28.462669999999996
aF5.1937400000000009
aF3.3786300000000002
aF23.17699
aF16.794569999999997
aF25.751529999999999
aF25.777560000000001
aF4.9461300000000001
aF2.7143100000000002
aF10.504029999999998
aF15.838419999999999
aF5.8726099999999999
aF21.780989999999999
aF3.9297699999999995
aF17.490169999999999
aF10.947379999999999
aF2.9098299999999999
aF29.516530000000003
aF6.6700900000000001
aF27.414659999999998
aF3.4274600000000004
aF8.442029999999999
aF4.5641999999999996
aF16.581609999999998
aF18.105510000000002
aF4.7481800000000005
aF14.16309
aF10.91353
aF4.7248200000000002
aF24.615950000000002
aF21.56813
aF5.2649999999999997
aF4.35677
aF10.212850000000001
aF4.9863800000000005
aF15.037579999999998
aF3.2928099999999998
aF14.474270000000001
aF23.715019999999999
aF10.42089
aF21.941110000000002
aF3.2950200000000001
aF7.5883700000000003
aF23.054780000000001
asS'contoid_reaction'
p66
F1.0728225231956023
sS'vocoid_accuracy'
p67
F0.66666666666666674
ssS'ticks'
p68
I1
sS'distributed'
p69
I00
sS'rand_range'
p70
F0.25
sS'rate'
p71
F0.10000000000000001
sS'seed'
p72
I0
sS'time'
p73
S'02/17 at 20:41:07'
p74
sS'hidden'
p75
I80
sS'_id'
p76
S'danish_l_0_80_1_95_1_25_696692'
p77
sS'momentum'
p78
F0.94999999999999996
sS'outcoding'
p79
g18
sb.