ccopy_reg
_reconstructor
p1
(c__main__
Network
p2
c__builtin__
object
p3
NtRp4
(dp5
S'lang'
p6
S'danish'
p7
sS'segmentation_results'
p8
ccollections
OrderedDict
p9
((lp10
(lp11
S'boundary_precision'
p12
aF0.62313432835820892
aa(lp13
S'boundary_recall'
p14
aF0.5439739413680782
aa(lp15
S'boundary_F'
p16
aF0.5808695652173913
aa(lp17
S'word_precision'
p18
aF0.25
aa(lp19
S'word_recall'
p20
aF0.21824104234527689
aa(lp21
S'word_F'
p22
aF0.23304347826086957
aatRp23
sS'num_train'
p24
I696692
sS'incoding'
p25
(dp26
S'1'
S'41'
p27
sS'0'
S'14'
p28
sS'3'
S'23'
p29
sS'2'
S'22'
p30
sS'5'
S'43'
p31
sS'4'
S'24'
p32
sS'7'
S'8'
sS'6'
S'9'
sS'9'
S'11'
p33
sS'8'
S'4'
sS'A'
S'5'
sS'E'
S'3'
sS'D'
S'40'
p34
sS'G'
S'34'
p35
sS'O'
S'13'
p36
sS'N'
S'38'
p37
sS'Q'
S'0'
sS'S'
S'27'
p38
sS'R'
S'35'
p39
sS'U'
S'12'
p40
sS'T'
S'42'
p41
sS'Y'
S'7'
sS'Z'
S'29'
p42
sS'b'
S'19'
p43
sS'e'
S'2'
sS'd'
S'20'
p44
sS'g'
S'21'
p45
sS'f'
S'25'
p46
sS'i'
S'1'
sS'h'
S'30'
p47
sS'k'
S'18'
p48
sS'j'
S'32'
p49
sS'm'
S'36'
p50
sS'l'
S'39'
p51
sS'o'
S'15'
p52
sS'n'
S'37'
p53
sS'p'
S'16'
p54
sS's'
S'26'
p55
sS'r'
S'33'
p56
sS'u'
S'10'
p57
sS't'
S'17'
p58
sS'w'
S'44'
p59
sS'v'
S'31'
p60
sS'y'
S'6'
sS'z'
S'28'
p61
ssS'experiment_results'
p62
(dp63
S'vocoid_errors'
p64
(lp65
F23.029640000000001
aF12.11839
aF12.10324
aF16.9879
aF14.207709999999999
aF26.726109999999998
aF10.584910000000001
aF34.80706
aF25.092059999999996
aF13.07629
aF32.51549
aF14.04561
aF19.279470000000003
aF6.6808699999999996
aF17.756910000000001
aF5.3184599999999991
aF11.160730000000001
aF22.745760000000001
aF12.488619999999999
aF28.98075
aF24.555319999999998
aF11.294740000000001
aF5.6331799999999994
aF25.884109999999996
aF15.059749999999999
aF5.5386799999999994
aF14.388859999999998
aF8.3853099999999987
aF17.938769999999998
aF13.519569999999998
aF10.495979999999999
aF27.590110000000003
aF4.4171899999999997
aF21.056260000000002
aF22.875620000000001
aF4.98306
aF8.6130199999999988
aF14.272309999999999
aF12.803190000000001
aF11.585819999999998
aF25.769950000000001
aF12.539299999999999
aF26.863620000000001
aF5.0914700000000002
aF4.5137099999999997
aF20.655879999999996
aF6.9134000000000002
aF21.25882
aF14.629449999999999
aF13.35615
aF7.976230000000001
aF14.092880000000001
aF16.49297
aF4.71861
aF23.002079999999999
aF4.3247999999999998
aF5.9233799999999999
aF18.691040000000001
aF20.855179999999997
aF11.897309999999999
aF10.541740000000001
aF11.050369999999999
aF4.2475800000000001
aF12.92426
aF4.8071299999999999
aF14.396280000000001
aF22.298269999999999
aF6.3987300000000005
aF17.018160000000002
aF10.616070000000001
aF14.685349999999998
aF21.090470000000003
asS'vocoid_reaction'
p66
F2.1789982742016147
sS'contoid_accuracy'
p67
F0.69444444444444442
sS'vocoid_all_rts'
p68
(lp69
F1.6106326039637988
aF2.9778060294882343
aF1.6349461592535788
aF0.93699300020848686
aF1.5882606774264159
aF1.2604602736996666
aF1.0302866985220578
aF0.92758221482580205
aF1.4633751487911557
aF1.2572472445948459
aF1.3517530907396211
aF0.77816895322832091
aF1.0817287342704129
aF1.8967252708813955
aF3.5592799601737863
aF1.1140107744588343
aF0.76547096682687177
aF0.77849899623083541
aF2.0219258952978194
aF10.017090120505658
aF1.4477463314349632
aF0.73385242155689723
aF0.77962225648720096
aF0.98192384747187589
aF10.98939762821017
aF1.804019357000973
aF0.90075299209468707
aF0.7315540592634473
aF0.96393622637194287
aF1.8281405066159702
aF21.225753494681857
aF0.98953977788739456
aF1.0013092922730378
aF0.90244749219159814
aF2.1582194252189515
aF2.7927517361111089
asS'contoid_all_rts'
p70
(lp71
F0.96823904623629675
aF0.82963194686100961
aF0.79051022915863922
aF1.3785627294173759
aF1.4445903635315145
aF1.4533872863160497
aF0.85777491763136848
aF0.59528522279774665
aF0.7258699722657499
aF2.3167148117055243
aF1.3548461924227235
aF3.2771554328703676
aF0.79351934515540723
aF0.65653005422402799
aF1.0181632225549271
aF0.97325308877265015
aF1.2721341729887099
aF0.88319272324037579
aF1.9332353267502491
aF1.2382342962009958
aF4.6234110823151919
aF0.98811227732539231
aF0.65498022916158405
aF2.6448894906285361
aF7.0520883561801071
aF0.76461161596346983
aF1.6566343705289204
aF3.721916886062993
aF0.86974421159562654
aF1.5330498091288343
aF5.4813515562217558
aF0.86048286581521172
aF1.0753081326679967
aF2.9259778686713838
aF0.989702747823896
aF10.964317226345544
asS'contoid_errors'
p72
(lp73
F30.853590000000001
aF9.8395800000000015
aF9.1410400000000003
aF36.87209
aF9.5751300000000015
aF42.534829999999999
aF15.473730000000002
aF33.086280000000002
aF33.923339999999996
aF16.478359999999999
aF16.722050000000003
aF8.1615099999999998
aF18.936140000000002
aF4.9896899999999995
aF30.113520000000001
aF2.6197500000000002
aF5.3246000000000011
aF28.898340000000001
aF13.741539999999999
aF21.305489999999999
aF29.626030000000004
aF13.6538
aF16.939899999999998
aF12.455070000000001
aF10.475449999999999
aF2.37704
aF24.781859999999998
aF3.3540900000000002
aF27.104769999999998
aF9.2511100000000006
aF6.1830799999999995
aF19.248139999999999
aF12.279520000000002
aF28.182870000000001
aF18.460920000000002
aF5.1143199999999993
aF5.6838099999999994
aF9.6495300000000004
aF27.818579999999997
aF11.814649999999999
aF22.002949999999998
aF17.708359999999999
aF20.908290000000004
aF6.8580800000000002
aF2.5981799999999997
aF19.362769999999998
aF8.3012800000000002
aF12.17154
aF8.5604999999999993
aF9.8670299999999997
aF5.9757400000000001
aF28.558800000000002
aF17.04813
aF9.14316
aF13.975580000000001
aF18.31324
aF4.7353399999999999
aF17.54241
aF14.91732
aF7.5799099999999999
aF8.7401300000000006
aF10.4947
aF4.9167700000000005
aF18.556170000000002
aF6.1081500000000002
aF16.725329999999996
aF20.471039999999999
aF14.495799999999999
aF14.187779999999998
aF4.6638799999999998
aF10.0808
aF11.044150000000002
asS'contoid_reaction'
p74
F1.9680168873619102
sS'vocoid_accuracy'
p75
F0.66666666666666674
ssS'ticks'
p76
I1
sS'distributed'
p77
I00
sS'rand_range'
p78
F0.25
sS'rate'
p79
F0.10000000000000001
sS'seed'
p80
I3
sS'time'
p81
S'05/25 at 15:05:28'
p82
sS'hidden'
p83
I80
sS'_id'
p84
S'danish_l_3_80_1_95_1_25_696692'
p85
sS'momentum'
p86
F0.94999999999999996
sS'outcoding'
p87
g26
sb.