ccopy_reg
_reconstructor
p1
(c__main__
Network
p2
c__builtin__
object
p3
NtRp4
(dp5
S'lang'
p6
S'english'
p7
sS'segmentation_results'
p8
ccollections
OrderedDict
p9
((lp10
(lp11
S'boundary_precision'
p12
aF0.65527950310559002
aa(lp13
S'boundary_recall'
p14
aF0.77573529411764708
aa(lp15
S'boundary_F'
p16
aF0.71043771043771053
aa(lp17
S'word_precision'
p18
aF0.33850931677018631
aa(lp19
S'word_recall'
p20
aF0.40073529411764708
aa(lp21
S'word_F'
p22
aF0.367003367003367
aatRp23
sS'num_train'
p24
I696692
sS'incoding'
p25
(dp26
S'1'
S'41'
p27
sS'0'
S'14'
p28
sS'3'
S'23'
p29
sS'2'
S'22'
p30
sS'5'
S'43'
p31
sS'4'
S'24'
p32
sS'7'
S'8'
sS'6'
S'9'
sS'9'
S'11'
p33
sS'8'
S'4'
sS'A'
S'5'
sS'E'
S'3'
sS'D'
S'40'
p34
sS'G'
S'34'
p35
sS'O'
S'13'
p36
sS'N'
S'38'
p37
sS'Q'
S'0'
sS'S'
S'27'
p38
sS'R'
S'35'
p39
sS'U'
S'12'
p40
sS'T'
S'42'
p41
sS'Y'
S'7'
sS'Z'
S'29'
p42
sS'b'
S'19'
p43
sS'e'
S'2'
sS'd'
S'20'
p44
sS'g'
S'21'
p45
sS'f'
S'25'
p46
sS'i'
S'1'
sS'h'
S'30'
p47
sS'k'
S'18'
p48
sS'j'
S'32'
p49
sS'm'
S'36'
p50
sS'l'
S'39'
p51
sS'o'
S'15'
p52
sS'n'
S'37'
p53
sS'p'
S'16'
p54
sS's'
S'26'
p55
sS'r'
S'33'
p56
sS'u'
S'10'
p57
sS't'
S'17'
p58
sS'w'
S'44'
p59
sS'v'
S'31'
p60
sS'y'
S'6'
sS'z'
S'28'
p61
ssS'experiment_results'
p62
(dp63
S'vocoid_errors'
p64
(lp65
F40.849820000000001
aF23.614249999999998
aF19.348369999999999
aF42.976910000000004
aF15.528369999999999
aF27.615880000000001
aF22.054490000000001
aF60.389400000000002
aF38.103000000000002
aF11.53593
aF27.148250000000004
aF12.31894
aF16.94933
aF14.96856
aF28.216010000000001
aF6.9307699999999999
aF7.2355200000000002
aF20.760210000000001
aF20.375650000000004
aF43.390180000000001
aF28.20561
aF15.027799999999999
aF7.7499900000000004
aF22.429769999999998
aF17.250990000000002
aF5.757579999999999
aF36.398029999999999
aF7.2917400000000008
aF21.1816
aF12.272490000000001
aF6.9298500000000001
aF36.720860000000002
aF12.977689999999999
aF41.686799999999998
aF18.69566
aF6.5894300000000001
aF5.8346999999999998
aF11.080829999999999
aF20.29092
aF7.7226599999999994
aF13.11421
aF17.77206
aF29.408750000000005
aF10.414149999999999
aF4.6262100000000004
aF26.863309999999998
aF6.2375699999999998
aF18.494119999999999
aF5.9532199999999991
aF7.68337
aF15.315239999999999
aF28.389229999999998
aF7.4296799999999994
aF9.3279200000000007
aF29.485139999999998
aF12.859250000000001
aF4.7587700000000002
aF23.521820000000002
aF17.058720000000001
aF15.5045
aF8.7686600000000006
aF9.3358500000000006
aF8.8407099999999996
aF18.163830000000001
aF7.6770399999999999
aF12.044659999999999
aF27.084070000000004
aF12.698220000000001
aF18.557980000000001
aF7.1016299999999992
aF10.545500000000001
aF18.375680000000003
asS'vocoid_reaction'
p66
F1.7900575432610699
sS'contoid_accuracy'
p67
F0.63888888888888884
sS'vocoid_all_rts'
p68
(lp69
F1.8700881374970479
aF1.3188559259268664
aF1.7846624325440059
aF1.0753108589533666
aF0.93421912917005911
aF1.3307156570332668
aF8.0569399778873887
aF0.82561389958487652
aF1.0349860144668752
aF1.3853385230982345
aF1.6403867562212537
aF1.0279363859676371
aF1.000946194384434
aF0.75052110729330324
aF1.877521435923454
aF0.73261547695093265
aF0.95204083303174492
aF1.0443007443275074
aF1.6121912724236724
aF1.1144573711874195
aF3.3155071545884907
aF1.0482689817105912
aF0.70804016710812112
aF1.0089172728051532
aF3.9408692887899863
aF1.67142815620939
aF4.4139834794335773
aF1.2734473162038242
aF0.75362454398405387
aF10.475743459741858
aF15.959828276239003
aF1.4482565922137651
aF2.2577170175061023
aF1.3826881970825498
aF1.1198859147983433
aF1.8467761916073449
asS'contoid_all_rts'
p70
(lp71
F1.5126839660921185
aF4.8660203026295399
aF18.626617136866987
aF1.0732454834185712
aF119.97335923777297
aF7.3099862204502006
aF0.80511937990450499
aF28.658245704026612
aF15.035199029444575
aF0.8477733094162242
aF1.4664119694168338
aF2.8898329563391973
aF0.94298061169775482
aF1.1958681830982154
aF1.1681886140836097
aF16.70243757028851
aF3.5344393772605751
aF2.7045348274419405
aF1.2735728307852101
aF11.051507657186344
aF2.825359842294946
aF1.3651465585290223
aF0.89807594032859861
aF1.1999126549234964
aF2.4863770144223345
aF0.9950280932698945
aF1.2259307526298779
aF0.86902683190056196
aF1.087294330216473
aF3.3670394255537581
aF1.6096750026162934
aF4.4258224684848528
aF1.2614479761552642
aF2.2402037455415136
aF78.930476007123275
aF1.0009795925835887
asS'contoid_errors'
p72
(lp73
F33.555930000000004
aF16.883700000000001
aF12.11575
aF14.89076
aF21.787649999999999
aF22.989619999999999
aF17.343330000000002
aF47.59796
aF22.633330000000001
aF22.445460000000004
aF27.658910000000002
aF24.117429999999999
aF23.108000000000001
aF5.4023399999999997
aF7.9581599999999995
aF7.6852299999999989
aF17.731780000000001
aF18.951699999999999
aF8.1021199999999993
aF31.399250000000002
aF11.896570000000001
aF24.206609999999998
aF11.748610000000001
aF16.66469
aF17.465389999999999
aF5.3616999999999999
aF6.7707000000000006
aF16.50056
aF18.432549999999999
aF7.3831100000000003
aF25.391829999999999
aF23.915770000000002
aF14.086079999999999
aF18.728149999999999
aF13.43675
aF19.5318
aF15.581010000000001
aF35.722629999999995
aF7.7649599999999994
aF8.500869999999999
aF15.72406
aF22.486049999999999
aF23.41574
aF10.861370000000001
aF4.5491799999999998
aF15.9771
aF7.0596200000000007
aF17.146049999999999
aF7.5792400000000004
aF11.394849999999998
aF25.08098
aF8.3047199999999997
aF16.55461
aF6.9629099999999999
aF18.393560000000001
aF4.9580600000000006
aF6.4227799999999995
aF17.359000000000002
aF9.3271099999999993
aF12.58033
aF21.570139999999999
aF11.345750000000001
aF6.0011299999999999
aF7.5297599999999996
aF6.6932800000000006
aF15.48348
aF16.555900000000001
aF10.514049999999999
aF16.503270000000001
aF16.295500000000001
aF7.6661299999999999
aF22.968409999999999
asS'contoid_reaction'
p74
F11.946151626637318
sS'vocoid_accuracy'
p75
F0.69444444444444442
ssS'ticks'
p76
I1
sS'distributed'
p77
I00
sS'rand_range'
p78
F0.25
sS'rate'
p79
F0.10000000000000001
sS'seed'
p80
I10
sS'time'
p81
S'05/25 at 21:23:56'
p82
sS'hidden'
p83
I80
sS'_id'
p84
S'english_l_10_80_1_95_1_25_696692'
p85
sS'momentum'
p86
F0.94999999999999996
sS'outcoding'
p87
g26
sb.