ccopy_reg
_reconstructor
p1
(cnetwork
Network
p2
c__builtin__
object
p3
NtRp4
(dp5
S'lang'
p6
S'english'
p7
sS'segmentation_results'
p8
(dp9
S'word_recall'
p10
F0.40073529411764708
sS'boundary_recall'
p11
F0.72058823529411764
sS'boundary_F'
p12
F0.69257950530035328
sS'word_precision'
p13
F0.37074829931972791
sS'boundary_precision'
p14
F0.66666666666666663
sS'word_F'
p15
F0.38515901060070679
ssS'num_train'
p16
I696692
sS'incoding'
p17
(dp18
S'1'
S'41'
p19
sS'0'
S'14'
p20
sS'3'
S'23'
p21
sS'2'
S'22'
p22
sS'5'
S'43'
p23
sS'4'
S'24'
p24
sS'7'
S'8'
sS'6'
S'9'
sS'9'
S'11'
p25
sS'8'
S'4'
sS'A'
S'5'
sS'E'
S'3'
sS'D'
S'40'
p26
sS'G'
S'34'
p27
sS'O'
S'13'
p28
sS'N'
S'38'
p29
sS'Q'
S'0'
sS'S'
S'27'
p30
sS'R'
S'35'
p31
sS'U'
S'12'
p32
sS'T'
S'42'
p33
sS'Y'
S'7'
sS'Z'
S'29'
p34
sS'b'
S'19'
p35
sS'e'
S'2'
sS'd'
S'20'
p36
sS'g'
S'21'
p37
sS'f'
S'25'
p38
sS'i'
S'1'
sS'h'
S'30'
p39
sS'k'
S'18'
p40
sS'j'
S'32'
p41
sS'm'
S'36'
p42
sS'l'
S'39'
p43
sS'o'
S'15'
p44
sS'n'
S'37'
p45
sS'p'
S'16'
p46
sS's'
S'26'
p47
sS'r'
S'33'
p48
sS'u'
S'10'
p49
sS't'
S'17'
p50
sS'w'
S'44'
p51
sS'v'
S'31'
p52
sS'y'
S'6'
sS'z'
S'28'
p53
ssS'experiment_results'
p54
(dp55
S'vocoid_errors'
p56
(lp57
F35.044989999999999
aF20.38618
aF29.473489999999998
aF53.455579999999998
aF18.158799999999999
aF26.993569999999998
aF15.905229999999998
aF52.577559999999991
aF26.677789999999998
aF15.241849999999999
aF27.368850000000002
aF4.2471900000000007
aF22.639429999999997
aF16.31372
aF29.928089999999997
aF18.787019999999998
aF15.946210000000001
aF30.284659999999999
aF14.863449999999998
aF37.673070000000003
aF21.361960000000003
aF27.76463
aF9.5080399999999994
aF21.776149999999998
aF19.144540000000003
aF5.2000100000000007
aF22.12246
aF10.473339999999999
aF24.28708
aF15.370360000000002
aF3.5621499999999999
aF30.319759999999999
aF14.58845
aF24.076529999999998
aF13.470599999999999
aF4.8853799999999996
aF9.6789900000000006
aF15.090399999999999
aF30.127200000000002
aF7.5657699999999997
aF19.572419999999997
aF7.0300799999999999
aF26.961610000000004
aF10.61586
aF10.947410000000001
aF20.629200000000001
aF12.22836
aF16.68263
aF13.597799999999999
aF10.741430000000001
aF6.7772600000000001
aF22.89678
aF11.508599999999999
aF6.7901199999999999
aF23.114279999999997
aF7.3151299999999999
aF5.3911899999999999
aF18.103999999999999
aF14.052490000000001
aF14.467230000000001
aF4.4448099999999995
aF9.7335199999999986
aF10.184760000000001
aF23.086189999999995
aF4.597739999999999
aF9.6544799999999995
aF25.57619
aF11.688580000000002
aF16.473399999999998
aF9.2389099999999988
aF15.115349999999999
aF12.847850000000001
asS'vocoid_reaction'
p58
F2.8268967765879465
sS'contoid_accuracy'
p59
F0.66666666666666674
sS'vocoid_all_rts'
p60
(lp61
F1.8907117972059122
aF1.7289792090681004
aF2.5553789176175501
aF0.93371201120845071
aF1.8328025505555294
aF0.68368880089059347
aF3.0789547734562608
aF2.1862850695669267
aF1.6121292747821419
aF1.1516307593024346
aF3.8364143396426829
aF1.2750207652197445
aF0.87290679571129337
aF1.3990670539920609
aF2.2237683811984681
aF0.63312661332607811
aF2.0375555433765316
aF1.0690454059418395
aF2.2886262545251617
aF0.83534088929646755
aF1.0605078478178716
aF1.149456892464402
aF1.6307216950584553
aF3.2453118019338754
aF4.260517720043274
aF0.92043807756062201
aF1.9390481680541189
aF0.96300782004095176
aF0.92407540111116282
aF34.382649370690061
aF1.3404336785340849
aF1.2894287687488912
aF1.4092300573096497
aF1.3416552596163054
aF1.7770644509841051
aF6.1660859977949327
asS'contoid_all_rts'
p62
(lp63
F1.161012918835034
aF1.5531270759655222
aF6.4140711381555802
aF2.9667105577588258
aF3.3432549515982397
aF0.72283028883098777
aF0.90874753527438479
aF1.0225550028125991
aF28.512852710887824
aF0.75478608130397018
aF18.753146998197945
aF0.63575072267052579
aF0.83630244895708383
aF35.201874741261918
aF1.6792891820206985
aF0.8949714894628864
aF1.6072828796040692
aF1.8789656154137204
aF1.5925810067144126
aF1.522132582088185
aF3.2130728567475861
aF1.4435786690089689
aF0.85796253868724626
aF0.72449968542488286
aF5.8487539471058465
aF4.5392499602733194
aF2.6041968413612504
aF0.90049046340042171
aF0.97599804460518691
aF11.758596360333465
aF14.832398885417586
aF3.5030071537562195
aF1.3952675438822897
aF2.8439594257536061
aF1.2230657495874779
aF1.9918387871209466
asS'contoid_errors'
p64
(lp65
F65.172349999999994
aF25.935839999999999
aF19.102830000000001
aF37.241979999999998
aF23.695140000000002
aF27.701710000000002
aF40.876649999999998
aF57.447970000000005
aF21.557969999999997
aF15.94867
aF62.569339999999997
aF11.4017
aF31.907539999999997
aF9.2579600000000006
aF19.379749999999998
aF6.6513100000000005
aF17.67492
aF17.065709999999999
aF10.07788
aF49.632160000000006
aF14.851300000000002
aF14.079929999999999
aF5.3526699999999998
aF44.782809999999998
aF22.536380000000001
aF5.6716499999999996
aF12.07366
aF11.735479999999999
aF18.166619999999998
aF9.8305900000000008
aF7.5910400000000005
aF26.810249999999996
aF9.3341399999999997
aF17.763910000000003
aF38.604950000000002
aF22.377330000000001
aF11.473509999999999
aF21.974800000000002
aF17.435089999999999
aF8.8129600000000003
aF12.748650000000001
aF9.3152000000000008
aF20.843890000000002
aF10.119399999999999
aF6.41214
aF24.325020000000002
aF6.0875199999999987
aF33.20346
aF9.1131000000000011
aF10.816880000000001
aF9.40503
aF11.73344
aF10.716059999999999
aF7.263939999999999
aF16.48733
aF4.7147900000000007
aF7.3807400000000003
aF22.886559999999999
aF15.115830000000003
aF13.882750000000001
aF9.0790799999999994
aF8.486930000000001
aF6.061630000000001
aF8.0801499999999997
aF5.2029099999999993
aF11.014480000000001
aF13.50423
aF19.265520000000002
aF23.2027
aF9.7367600000000021
aF13.409929999999997
aF22.398790000000002
asS'contoid_reaction'
p66
F2.4333638508484001
sS'vocoid_accuracy'
p67
F0.72222222222222221
ssS'ticks'
p68
I1
sS'distributed'
p69
I00
sS'rand_range'
p70
F0.25
sS'rate'
p71
F0.10000000000000001
sS'seed'
p72
I0
sS'time'
p73
S'02/17 at 20:40:53'
p74
sS'hidden'
p75
I80
sS'_id'
p76
S'english_l_0_80_1_95_1_25_696692'
p77
sS'momentum'
p78
F0.94999999999999996
sS'outcoding'
p79
g18
sb.