ccopy_reg
_reconstructor
p1
(c__main__
Network
p2
c__builtin__
object
p3
NtRp4
(dp5
S'lang'
p6
S'english'
p7
sS'segmentation_results'
p8
ccollections
OrderedDict
p9
((lp10
(lp11
S'boundary_precision'
p12
aF0.5898305084745763
aa(lp13
S'boundary_recall'
p14
aF0.63970588235294112
aa(lp15
S'boundary_F'
p16
aF0.61375661375661372
aa(lp17
S'word_precision'
p18
aF0.26440677966101694
aa(lp19
S'word_recall'
p20
aF0.28676470588235292
aa(lp21
S'word_F'
p22
aF0.27513227513227517
aatRp23
sS'num_train'
p24
I696692
sS'incoding'
p25
(dp26
S'1'
S'0 0 0 0 0 1 0 0 1 0 0 0 0 0 0 0'
p27
sS'0'
S'0 1 1 0 0 1 0 0 0 0 0 0 0 0 0 0'
p28
sS'3'
S'0 0 0 1 0 1 0 0 1 0 0 0 0 0 0 0'
p29
sS'2'
S'0 0 0 1 0 1 0 1 0 0 0 0 0 0 0 0'
p30
sS'5'
S'0 1 1 0 0 1 0 0 0 0 0 1 0 0 0 0'
p31
sS'4'
S'0 0 0 1 0 1 0 0 0 0 1 0 0 0 0 0'
p32
sS'7'
S'0 1 1 0 0 1 0 1 0 0 0 0 0 1 0 0'
p33
sS'6'
S'0 1 1 0 0 1 0 1 0 0 0 1 0 1 0 0'
p34
sS'9'
S'0 1 1 0 0 1 0 1 0 0 1 1 0 0 0 0'
p35
sS'8'
S'0 1 1 0 0 1 0 0 0 0 0 1 0 1 0 0'
p36
sS'A'
S'0 1 1 0 0 1 0 0 0 0 0 1 1 0 0 0'
p37
sS'E'
S'0 1 1 0 0 1 0 0 0 0 0 0 0 1 0 0'
p38
sS'D'
S'0 1 1 0 0 1 0 0 1 0 0 0 1 0 0 0'
p39
sS'G'
S'0 0 0 0 0 1 0 0 1 0 0 0 0 0 0 1'
p40
sS'O'
S'0 1 1 0 0 1 0 1 0 0 0 1 1 0 0 0'
p41
sS'N'
S'0 0 1 1 0 1 0 0 0 0 1 0 0 0 0 0'
p42
sS'Q'
S'1'
sS'S'
S'0 0 0 0 0 0 1 0 0 1 0 0 0 1 1 0'
p43
sS'R'
S'0 1 1 0 0 1 0 0 1 0 0 0 0 0 0 1'
p44
sS'U'
S'0 1 1 0 0 1 0 1 0 0 0 1 0 0 0 0'
p45
sS'T'
S'0 0 0 0 0 0 1 0 1 0 0 0 0 0 0 0'
p46
sS'Y'
S'0 1 1 0 0 1 0 1 0 1 0 0 0 1 0 0'
p47
sS'Z'
S'0 0 0 0 0 1 0 0 0 1 0 0 0 1 1 0'
p48
sS'b'
S'0 0 0 1 0 0 0 1 0 0 0 0 0 0 0 0'
p49
sS'e'
S'0 1 1 0 0 1 0 0 0 1 0 0 0 1 0 0'
p50
sS'd'
S'0 0 0 1 0 0 0 0 1 0 0 0 0 0 0 0'
p51
sS'g'
S'0 0 0 1 0 0 0 0 0 0 1 0 0 0 0 0'
p52
sS'f'
S'0 0 0 0 0 0 1 1 0 0 0 0 0 0 0 0'
p53
sS'i'
S'0 1 1 0 0 1 0 0 0 1 0 0 1 1 0 0'
p54
sS'h'
S'0 0 0 0 0 0 1 0 0 0 0 0 0 0 0 0'
p55
sS'k'
S'0 0 0 1 0 0 1 0 0 0 1 0 0 0 0 0'
p56
sS'j'
S'0 1 1 0 0 1 0 0 0 1 0 0 1 1 0 0'
p57
sS'm'
S'0 0 1 1 0 1 0 1 0 0 0 0 0 0 0 0'
p58
sS'l'
S'0 0 1 0 1 1 0 0 1 0 0 0 1 0 0 0'
p59
sS'o'
S'0 1 1 0 0 1 0 1 0 0 1 1 1 0 0 0'
p60
sS'n'
S'0 0 1 1 0 1 0 0 1 0 0 0 0 0 0 0'
p61
sS'p'
S'0 0 0 1 0 0 1 1 0 0 0 0 0 0 0 0'
p62
sS's'
S'0 0 0 0 0 0 1 0 1 0 0 0 0 0 1 0'
p63
sS'r'
S'0 0 0 0 0 1 0 0 0 0 0 1 0 0 0 0'
p64
sS'u'
S'0 1 1 0 0 1 0 1 0 0 1 0 0 0 0 0'
p65
sS't'
S'0 0 0 1 0 0 1 0 1 0 0 0 0 0 1 0'
p66
sS'w'
S'0 1 1 0 0 1 0 1 0 0 1 0 0 0 0 0'
p67
sS'v'
S'0 0 0 0 0 1 0 1 0 0 0 0 0 0 0 0'
p68
sS'y'
S'0 1 1 0 0 1 0 1 0 1 0 0 1 1 0 0'
p69
sS'z'
S'0 0 0 0 0 1 0 0 1 0 0 0 0 0 1 0'
p70
ssS'experiment_results'
p71
(dp72
S'vocoid_errors'
p73
(lp74
F27.663919999999997
aF26.600440000000003
aF20.590060000000001
aF20.78304
aF17.214359999999999
aF22.879819999999999
aF27.33915
aF17.921890000000001
aF24.7258
aF23.315239999999999
aF23.228259999999999
aF22.93881
aF19.44164
aF18.12471
aF13.448030000000001
aF12.459129999999998
aF22.593269999999997
aF20.569009999999999
aF27.84619
aF19.21519
aF21.028089999999999
aF21.383420000000001
aF18.139869999999998
aF21.811329999999998
aF15.131640000000001
aF12.610949999999999
aF11.614619999999999
aF23.53303
aF22.761780000000002
aF28.505979999999997
aF21.953680000000002
aF21.097079999999998
aF17.109749999999998
aF21.432579999999998
aF22.21733
aF15.73884
aF19.749459999999999
aF13.797539999999998
aF11.171530000000001
aF26.68872
aF19.227790000000002
aF23.309429999999999
aF21.394649999999999
aF15.857889999999999
aF17.057780000000001
aF23.200330000000001
aF12.10403
aF21.760849999999998
aF23.60839
aF14.46536
aF21.596060000000001
aF12.38392
aF17.482200000000002
aF11.946470000000001
aF20.988240000000001
aF15.886799999999999
aF12.32676
aF24.462209999999999
aF22.351679999999998
aF21.2559
aF21.402739999999998
aF15.41555
aF13.31701
aF12.33487
aF17.391689999999997
aF20.5504
aF22.66648
aF12.91478
aF24.060870000000001
aF23.721580000000003
aF22.064499999999999
aF23.711819999999999
asS'vocoid_reaction'
p75
F15.953843894945873
sS'contoid_accuracy'
p76
F0.63888888888888884
sS'vocoid_all_rts'
p77
(lp78
F25.512637755294062
aF107.19530521297622
aF3.5384752517889106
aF2.4030896460329227
aF17.029066470054442
aF79.749645880117825
aF14.262849961653247
aF13.09897866316105
aF10.661249049035211
aF2.7262993859344222
aF59.67904483156466
aF5.440778327967621
aF5.5029753757899584
aF1.474510861767635
aF4.4625674593503035
aF25.128858276908595
aF4.4579974229844792
aF2.9293994433888142
aF2.8181662387935313
aF1.2199454282637514
aF5.2108000705598778
aF3.364110057145334
aF3.2769867563145603
aF1.7534177917782463
aF2.0821188380657181
aF1.8443043635897844
aF2.6580658738775189
aF3.6141795257809544
aF1.5157645575565803
aF19.89796309478184
aF3.0747554361895988
aF13.059176899423717
aF6.0059470480037671
aF1.824361906129188
aF70.415352648177432
aF13.89417963722895
asS'contoid_all_rts'
p79
(lp80
F6.9865457859195716
aF181.00676465675605
aF7.8133774394200692
aF5.9965949526135143
aF71.203662986527334
aF19.861621418962145
aF5.0660733841173577
aF4.5048397829472266
aF1.6089955062483277
aF5.1843586471093044
aF7.1590881740044603
aF2.6049767074816081
aF29.326984195155426
aF1.6539891966826099
aF1.6546968536627258
aF26.036533196440775
aF2.1056673339141314
aF2.3175375095918893
aF2.273044897706967
aF1.1729124787108141
aF1.8413676182713512
aF2.2551091967342454
aF1.5243017309205347
aF2.6183600719046951
aF2.1751229881247407
aF1.7098991961233097
aF12.709441716533737
aF1.7065206040014642
aF1.3242373691449698
aF5.5038232175074722
aF2.1517357470444414
aF158.17220491519592
aF623.81038905512742
aF1.6961857726279794
aF3.7187062704071434
aF21.586666072065679
asS'contoid_errors'
p81
(lp82
F32.040170000000003
aF27.760470000000002
aF21.733620000000002
aF21.613880000000002
aF21.009900000000002
aF18.482659999999999
aF27.079030000000003
aF32.005540000000003
aF30.654749999999996
aF30.227229999999999
aF26.337419999999998
aF27.697709999999997
aF18.500959999999999
aF15.17708
aF14.59121
aF11.675790000000001
aF26.08935
aF13.71884
aF28.014850000000003
aF23.086439999999996
aF24.184490000000004
aF21.026869999999999
aF16.537960000000002
aF24.394560000000002
aF13.424149999999999
aF13.88983
aF12.386620000000001
aF23.120360000000005
aF15.39443
aF28.726440000000004
aF24.812720000000002
aF23.877680000000002
aF15.168369999999999
aF24.61514
aF21.920470000000002
aF14.140459999999999
aF21.540680000000002
aF13.7728
aF11.394749999999998
aF28.328230000000001
aF13.889579999999999
aF24.244369999999996
aF22.943529999999999
aF14.6159
aF13.539629999999999
aF26.758030000000002
aF12.514889999999999
aF18.422710000000002
aF25.421559999999999
aF15.918610000000001
aF24.051459999999999
aF13.167950000000001
aF13.53162
aF12.50723
aF21.76267
aF11.89978
aF13.26146
aF29.350829999999998
aF18.166129999999999
aF21.796579999999999
aF22.786709999999999
aF14.193580000000001
aF13.75212
aF13.66545
aF14.60262
aF14.579229999999999
aF23.123639999999998
aF12.594639999999998
aF30.388860000000001
aF23.185500000000001
aF24.763569999999998
aF23.64237
asS'contoid_reaction'
p83
F14.052191975977451
sS'vocoid_accuracy'
p84
F0.55555555555555558
ssS'ticks'
p85
I1
sS'distributed'
p86
I01
sS'rand_range'
p87
F0.25
sS'rate'
p88
F0.10000000000000001
sS'seed'
p89
I2
sS'time'
p90
S'05/25 at 20:01:30'
p91
sS'hidden'
p92
I80
sS'_id'
p93
S'english_d_2_80_1_95_1_25_696692'
p94
sS'momentum'
p95
F0.94999999999999996
sS'outcoding'
p96
(dp97
S'1'
S'41'
p98
sS'0'
S'14'
p99
sS'3'
S'23'
p100
sS'2'
S'22'
p101
sS'5'
S'43'
p102
sS'4'
S'24'
p103
sS'7'
S'8'
sS'6'
S'9'
sS'9'
S'11'
p104
sS'8'
S'4'
sS'A'
S'5'
sS'E'
S'3'
sS'D'
S'40'
p105
sS'G'
S'34'
p106
sS'O'
S'13'
p107
sS'N'
S'38'
p108
sS'Q'
S'0'
sS'S'
S'27'
p109
sS'R'
S'35'
p110
sS'U'
S'12'
p111
sS'T'
S'42'
p112
sS'Y'
S'7'
sS'Z'
S'29'
p113
sS'b'
S'19'
p114
sS'e'
S'2'
sS'd'
S'20'
p115
sS'g'
S'21'
p116
sS'f'
S'25'
p117
sS'i'
S'1'
sS'h'
S'30'
p118
sS'k'
S'18'
p119
sS'j'
S'32'
p120
sS'm'
S'36'
p121
sS'l'
S'39'
p122
sS'o'
S'15'
p123
sS'n'
S'37'
p124
sS'p'
S'16'
p125
sS's'
S'26'
p126
sS'r'
S'33'
p127
sS'u'
S'10'
p128
sS't'
S'17'
p129
sS'w'
S'44'
p130
sS'v'
S'31'
p131
sS'y'
S'6'
sS'z'
S'28'
p132
ssb.