ccopy_reg
_reconstructor
p1
(c__main__
Network
p2
c__builtin__
object
p3
NtRp4
(dp5
S'lang'
p6
S'english'
p7
sS'segmentation_results'
p8
ccollections
OrderedDict
p9
((lp10
(lp11
S'boundary_precision'
p12
aF0.70671378091872794
aa(lp13
S'boundary_recall'
p14
aF0.73529411764705888
aa(lp15
S'boundary_F'
p16
aF0.72072072072072069
aa(lp17
S'word_precision'
p18
aF0.41696113074204949
aa(lp19
S'word_recall'
p20
aF0.43382352941176472
aa(lp21
S'word_F'
p22
aF0.42522522522522521
aatRp23
sS'num_train'
p24
I696692
sS'incoding'
p25
(dp26
S'1'
S'41'
p27
sS'0'
S'14'
p28
sS'3'
S'23'
p29
sS'2'
S'22'
p30
sS'5'
S'43'
p31
sS'4'
S'24'
p32
sS'7'
S'8'
sS'6'
S'9'
sS'9'
S'11'
p33
sS'8'
S'4'
sS'A'
S'5'
sS'E'
S'3'
sS'D'
S'40'
p34
sS'G'
S'34'
p35
sS'O'
S'13'
p36
sS'N'
S'38'
p37
sS'Q'
S'0'
sS'S'
S'27'
p38
sS'R'
S'35'
p39
sS'U'
S'12'
p40
sS'T'
S'42'
p41
sS'Y'
S'7'
sS'Z'
S'29'
p42
sS'b'
S'19'
p43
sS'e'
S'2'
sS'd'
S'20'
p44
sS'g'
S'21'
p45
sS'f'
S'25'
p46
sS'i'
S'1'
sS'h'
S'30'
p47
sS'k'
S'18'
p48
sS'j'
S'32'
p49
sS'm'
S'36'
p50
sS'l'
S'39'
p51
sS'o'
S'15'
p52
sS'n'
S'37'
p53
sS'p'
S'16'
p54
sS's'
S'26'
p55
sS'r'
S'33'
p56
sS'u'
S'10'
p57
sS't'
S'17'
p58
sS'w'
S'44'
p59
sS'v'
S'31'
p60
sS'y'
S'6'
sS'z'
S'28'
p61
ssS'experiment_results'
p62
(dp63
S'vocoid_errors'
p64
(lp65
F29.848459999999999
aF18.149189999999997
aF18.078440000000001
aF26.904589999999999
aF17.871600000000001
aF32.795729999999999
aF14.67056
aF41.002809999999997
aF32.956719999999997
aF25.224369999999997
aF23.342749999999995
aF8.022450000000001
aF15.3339
aF7.7677900000000006
aF21.496680000000001
aF13.191380000000001
aF13.494109999999999
aF22.14676
aF13.83353
aF30.89564
aF30.181499999999996
aF28.725550000000002
aF11.913399999999999
aF20.801079999999999
aF34.634899999999995
aF5.3314699999999995
aF20.71509
aF12.184149999999999
aF19.821950000000001
aF12.922169999999999
aF9.9684400000000011
aF32.630270000000003
aF10.108740000000001
aF30.047520000000002
aF19.659050000000001
aF9.1823699999999988
aF7.9725300000000008
aF11.460989999999999
aF17.053100000000001
aF18.2622
aF16.663540000000001
aF15.74699
aF30.755589999999998
aF9.9882100000000005
aF4.90984
aF29.513909999999999
aF9.7103000000000002
aF14.646499999999998
aF11.939170000000001
aF7.201509999999999
aF4.85961
aF16.25789
aF9.7729599999999994
aF4.80823
aF29.08783
aF13.89597
aF6.13131
aF30.390309999999999
aF20.324259999999999
aF11.362
aF4.7332799999999997
aF6.2396500000000001
aF6.3316699999999999
aF12.122159999999999
aF9.258659999999999
aF9.9880099999999992
aF31.504529999999999
aF12.93281
aF25.30076
aF8.4061399999999988
aF10.579330000000001
aF16.61459
asS'vocoid_reaction'
p66
F2.7613918218964533
sS'contoid_accuracy'
p67
F0.77777777777777779
sS'vocoid_all_rts'
p68
(lp69
F2.05130961162534
aF2.548281527053132
aF1.697496939520093
aF1.0571327934377048
aF3.762186786681927
aF1.0236483619772461
aF1.5266557055078505
aF2.0883086703671148
aF2.0595349401628402
aF1.3107748689933423
aF20.229764071568471
aF1.8404397998127744
aF0.68194013465317893
aF1.9282306521907315
aF2.3728379745441157
aF0.93987797984540533
aF1.0069888930014774
aF1.3764580000534519
aF2.7854010078946025
aF14.603961624348697
aF17.680721182695965
aF0.98095667339837789
aF0.69955397623238758
aF2.467160974028606
aF2.0200563147207684
aF0.92634590482072743
aF1.4684776412816005
aF1.4146983976945549
aF0.75274372397872946
aF1.7677605871733246
aF3.6421762249646488
aF1.5934601389519716
aF13.194399122506336
aF1.1963711492527349
aF0.99756312956432258
aF2.2529203381461613
asS'contoid_all_rts'
p70
(lp71
F1.1064453025432788
aF0.99043133984485898
aF2.1184190357540049
aF0.85573294395513755
aF2.0840838250185261
aF1.0704815628180731
aF0.84245371727168095
aF1.6286162206665777
aF1.5465926629614946
aF1.4030591857167427
aF4.6077289489579867
aF0.60195527698808993
aF0.83694157565017258
aF1.1671099536235898
aF117.65363128491663
aF1.0318631696247236
aF0.5792121467767628
aF1.0499416584206531
aF1.4462235839464737
aF5.0361363099531991
aF1.6646837611080776
aF0.77755090053857734
aF0.803061470782517
aF0.83198776944419761
aF8.8940313844394829
aF1.3272980031514565
aF0.74302741912184533
aF1.2929947063138945
aF1.0824820191772919
aF0.96258893477383412
aF8.9433690123738003
aF0.73357605438669959
aF3.6103727997550052
aF2.1962616648995859
aF0.90581491053245333
aF7.3585295514833637
asS'contoid_errors'
p72
(lp73
F47.2684
aF17.844179999999998
aF13.925690000000001
aF42.32047
aF19.849780000000003
aF32.114699999999999
aF14.758780000000002
aF56.247149999999998
aF22.401859999999999
aF36.543700000000001
aF45.424860000000002
aF16.500699999999998
aF23.72795
aF6.0528899999999997
aF19.287199999999999
aF10.226290000000001
aF8.3949499999999997
aF16.416170000000001
aF20.474789999999999
aF43.147490000000005
aF22.645539999999997
aF28.158450000000002
aF3.7627899999999999
aF40.669070000000005
aF14.846909999999999
aF3.7417800000000003
aF19.267790000000002
aF7.7101899999999999
aF15.937579999999999
aF16.073619999999998
aF10.409610000000001
aF29.981579999999997
aF2.0562800000000001
aF28.015429999999999
aF28.147390000000001
aF9.9871000000000016
aF6.92401
aF14.241530000000001
aF17.343940000000003
aF14.211079999999999
aF17.441289999999999
aF9.3840900000000005
aF23.490750000000002
aF5.1034199999999998
aF6.3910299999999989
aF27.479260000000004
aF5.67638
aF22.774540000000002
aF25.96313
aF23.199339999999999
aF8.3374100000000002
aF18.415289999999999
aF14.456209999999999
aF2.8263700000000003
aF20.383230000000005
aF9.0149699999999999
aF8.6194000000000024
aF23.417110000000001
aF18.951539999999998
aF5.9940100000000003
aF8.8979599999999994
aF9.9517999999999986
aF2.60982
aF13.78314
aF8.7345799999999993
aF11.542789999999998
aF21.793909999999997
aF13.710899999999999
aF21.96538
aF6.3407200000000001
aF16.314590000000003
aF18.69332
asS'contoid_reaction'
p74
F5.867215751638903
sS'vocoid_accuracy'
p75
F0.69444444444444442
ssS'ticks'
p76
I1
sS'distributed'
p77
I00
sS'rand_range'
p78
F0.25
sS'rate'
p79
F0.10000000000000001
sS'seed'
p80
I5
sS'time'
p81
S'05/25 at 20:35:24'
p82
sS'hidden'
p83
I80
sS'_id'
p84
S'english_l_5_80_1_95_1_25_696692'
p85
sS'momentum'
p86
F0.94999999999999996
sS'outcoding'
p87
g26
sb.