ccopy_reg
_reconstructor
p1
(c__main__
Network
p2
c__builtin__
object
p3
NtRp4
(dp5
S'lang'
p6
S'english'
p7
sS'segmentation_results'
p8
ccollections
OrderedDict
p9
((lp10
(lp11
S'boundary_precision'
p12
aF0.59999999999999998
aa(lp13
S'boundary_recall'
p14
aF0.7279411764705882
aa(lp15
S'boundary_F'
p16
aF0.65780730897009965
aa(lp17
S'word_precision'
p18
aF0.32727272727272727
aa(lp19
S'word_recall'
p20
aF0.39705882352941174
aa(lp21
S'word_F'
p22
aF0.35880398671096342
aatRp23
sS'num_train'
p24
I696692
sS'incoding'
p25
(dp26
S'1'
S'0 0 0 0 0 1 0 0 1 0 0 0 0 0 0 0'
p27
sS'0'
S'0 1 1 0 0 1 0 0 0 0 0 0 0 0 0 0'
p28
sS'3'
S'0 0 0 1 0 1 0 0 1 0 0 0 0 0 0 0'
p29
sS'2'
S'0 0 0 1 0 1 0 1 0 0 0 0 0 0 0 0'
p30
sS'5'
S'0 1 1 0 0 1 0 0 0 0 0 1 0 0 0 0'
p31
sS'4'
S'0 0 0 1 0 1 0 0 0 0 1 0 0 0 0 0'
p32
sS'7'
S'0 1 1 0 0 1 0 1 0 0 0 0 0 1 0 0'
p33
sS'6'
S'0 1 1 0 0 1 0 1 0 0 0 1 0 1 0 0'
p34
sS'9'
S'0 1 1 0 0 1 0 1 0 0 1 1 0 0 0 0'
p35
sS'8'
S'0 1 1 0 0 1 0 0 0 0 0 1 0 1 0 0'
p36
sS'A'
S'0 1 1 0 0 1 0 0 0 0 0 1 1 0 0 0'
p37
sS'E'
S'0 1 1 0 0 1 0 0 0 0 0 0 0 1 0 0'
p38
sS'D'
S'0 1 1 0 0 1 0 0 1 0 0 0 1 0 0 0'
p39
sS'G'
S'0 0 0 0 0 1 0 0 1 0 0 0 0 0 0 1'
p40
sS'O'
S'0 1 1 0 0 1 0 1 0 0 0 1 1 0 0 0'
p41
sS'N'
S'0 0 1 1 0 1 0 0 0 0 1 0 0 0 0 0'
p42
sS'Q'
S'1'
sS'S'
S'0 0 0 0 0 0 1 0 0 1 0 0 0 1 1 0'
p43
sS'R'
S'0 1 1 0 0 1 0 0 1 0 0 0 0 0 0 1'
p44
sS'U'
S'0 1 1 0 0 1 0 1 0 0 0 1 0 0 0 0'
p45
sS'T'
S'0 0 0 0 0 0 1 0 1 0 0 0 0 0 0 0'
p46
sS'Y'
S'0 1 1 0 0 1 0 1 0 1 0 0 0 1 0 0'
p47
sS'Z'
S'0 0 0 0 0 1 0 0 0 1 0 0 0 1 1 0'
p48
sS'b'
S'0 0 0 1 0 0 0 1 0 0 0 0 0 0 0 0'
p49
sS'e'
S'0 1 1 0 0 1 0 0 0 1 0 0 0 1 0 0'
p50
sS'd'
S'0 0 0 1 0 0 0 0 1 0 0 0 0 0 0 0'
p51
sS'g'
S'0 0 0 1 0 0 0 0 0 0 1 0 0 0 0 0'
p52
sS'f'
S'0 0 0 0 0 0 1 1 0 0 0 0 0 0 0 0'
p53
sS'i'
S'0 1 1 0 0 1 0 0 0 1 0 0 1 1 0 0'
p54
sS'h'
S'0 0 0 0 0 0 1 0 0 0 0 0 0 0 0 0'
p55
sS'k'
S'0 0 0 1 0 0 1 0 0 0 1 0 0 0 0 0'
p56
sS'j'
S'0 1 1 0 0 1 0 0 0 1 0 0 1 1 0 0'
p57
sS'm'
S'0 0 1 1 0 1 0 1 0 0 0 0 0 0 0 0'
p58
sS'l'
S'0 0 1 0 1 1 0 0 1 0 0 0 1 0 0 0'
p59
sS'o'
S'0 1 1 0 0 1 0 1 0 0 1 1 1 0 0 0'
p60
sS'n'
S'0 0 1 1 0 1 0 0 1 0 0 0 0 0 0 0'
p61
sS'p'
S'0 0 0 1 0 0 1 1 0 0 0 0 0 0 0 0'
p62
sS's'
S'0 0 0 0 0 0 1 0 1 0 0 0 0 0 1 0'
p63
sS'r'
S'0 0 0 0 0 1 0 0 0 0 0 1 0 0 0 0'
p64
sS'u'
S'0 1 1 0 0 1 0 1 0 0 1 0 0 0 0 0'
p65
sS't'
S'0 0 0 1 0 0 1 0 1 0 0 0 0 0 1 0'
p66
sS'w'
S'0 1 1 0 0 1 0 1 0 0 1 0 0 0 0 0'
p67
sS'v'
S'0 0 0 0 0 1 0 1 0 0 0 0 0 0 0 0'
p68
sS'y'
S'0 1 1 0 0 1 0 1 0 1 0 0 1 1 0 0'
p69
sS'z'
S'0 0 0 0 0 1 0 0 1 0 0 0 0 0 1 0'
p70
ssS'experiment_results'
p71
(dp72
S'vocoid_errors'
p73
(lp74
F49.156190000000002
aF37.64593
aF36.200450000000004
aF24.774230000000003
aF17.029129999999999
aF26.402049999999999
aF32.465789999999998
aF18.750049999999998
aF27.864790000000003
aF26.856719999999999
aF23.207190000000001
aF28.309010000000004
aF19.417849999999998
aF16.74596
aF12.34111
aF12.253639999999999
aF22.863270000000004
aF19.973230000000001
aF27.023630000000001
aF20.0182
aF21.128679999999999
aF22.004939999999998
aF18.314240000000002
aF21.528420000000001
aF15.112119999999999
aF12.62937
aF11.548769999999999
aF24.00123
aF23.29524
aF29.095510000000004
aF21.91011
aF20.99464
aF17.076650000000001
aF21.50168
aF22.215229999999998
aF15.81939
aF19.738640000000004
aF13.879240000000001
aF11.181650000000001
aF26.689799999999998
aF19.258510000000001
aF23.387999999999998
aF21.379079999999998
aF15.819750000000003
aF17.027999999999999
aF23.174250000000001
aF12.118359999999999
aF21.76014
aF23.602110000000003
aF14.459110000000001
aF21.576610000000002
aF12.389609999999999
aF17.479770000000002
aF11.95642
aF20.990760000000002
aF15.88702
aF12.329540000000001
aF24.464179999999995
aF22.355250000000002
aF21.26032
aF21.41301
aF15.420650000000002
aF13.316200000000002
aF12.334909999999999
aF17.394080000000002
aF20.551490000000001
aF22.668800000000005
aF12.915369999999999
aF24.064129999999999
aF23.723040000000001
aF22.066870000000002
aF23.714950000000002
asS'vocoid_reaction'
p75
F7.7963675788341371
sS'contoid_accuracy'
p76
F0.52777777777777779
sS'vocoid_all_rts'
p77
(lp78
F3.7706411497220733
aF2.6681912303456441
aF2.3168436303734583
aF1.8670461819777862
aF27.141721309035983
aF5.0488061123285384
aF6.7674586154370182
aF140.58963073053377
aF7.411056594372389
aF3.357526233221944
aF24.612341085979089
aF6.1979509548314056
aF5.586847245997383
aF1.4274287972015165
aF4.5162337270506336
aF23.433181862868278
aF4.3591037800873673
aF2.9733873893030478
aF2.8687135201556466
aF1.2210176584570049
aF5.1636533809259779
aF3.3456216846274667
aF3.2704697986577167
aF1.7568592106436778
aF2.0814404462430272
aF1.8486023729182535
aF2.6647043913566937
aF3.6128192266847434
aF1.5160614571178055
aF19.917058624752244
aF3.0733851103738776
aF13.070096505620114
aF6.0089709603757537
aF1.824187490964716
aF70.050675774722706
aF13.889441046551138
asS'contoid_all_rts'
p79
(lp80
F29.786358093420191
aF13.17527932960895
aF16.591650939984323
aF4.4118309869776322
aF5.4715997412616542
aF7.3486963650639705
aF19.372012469691732
aF119.8988975413436
aF2.2695331144505997
aF5.0812899514318861
aF13.888406028717519
aF2.9369521585975256
aF22.848047595673826
aF1.6016904864893489
aF1.6423455082654073
aF38.032146673684544
aF2.1325336840044602
aF2.3027631225967986
aF2.3002889767362129
aF1.1782101199736696
aF1.7934207896845336
aF2.2054354412186052
aF1.5273219479861784
aF2.6156703063698177
aF2.1510263715696429
aF1.7216291060815858
aF12.675865221874188
aF1.707515202671855
aF1.3240119017361052
aF5.4889384360498177
aF2.149245415735189
aF158.67307247047904
aF600.76636475918963
aF1.6965437348068821
aF3.721296210140085
aF21.551760829882923
asS'contoid_errors'
p81
(lp82
F45.698480000000004
aF44.189599999999999
aF35.836889999999997
aF33.216329999999999
aF25.992470000000001
aF24.471699999999998
aF39.08005
aF31.123740000000002
aF35.26576
aF29.36018
aF27.189140000000002
aF23.724980000000002
aF14.165710000000001
aF14.91633
aF13.646100000000001
aF13.760389999999999
aF22.977930000000001
aF14.68125
aF27.844330000000003
aF22.855460000000001
aF23.408210000000004
aF21.781330000000001
aF16.658809999999999
aF23.494730000000001
aF13.794259999999998
aF13.20345
aF12.480059999999998
aF23.808160000000001
aF15.45373
aF28.981799999999996
aF24.1585
aF23.53153
aF15.344380000000001
aF24.743500000000001
aF21.94031
aF14.112209999999999
aF21.72579
aF13.96738
aF11.395299999999999
aF28.197320000000001
aF13.8507
aF24.559280000000001
aF23.039380000000001
aF14.523419999999998
aF13.53058
aF26.701310000000003
aF12.532299999999999
aF18.455860000000001
aF25.43909
aF15.84315
aF23.939119999999999
aF13.163640000000001
aF13.545580000000001
aF12.517519999999999
aF21.759080000000004
aF11.90226
aF13.25981
aF29.351579999999998
aF18.157889999999998
aF21.797519999999999
aF22.824149999999999
aF14.20881
aF13.749369999999999
aF13.662989999999999
aF14.604760000000001
aF14.580470000000002
aF23.122949999999999
aF12.595980000000001
aF30.395570000000003
aF23.195039999999999
aF24.765229999999999
aF23.64218
asS'contoid_reaction'
p83
F13.510693369938661
sS'vocoid_accuracy'
p84
F0.52777777777777779
ssS'ticks'
p85
I1
sS'distributed'
p86
I01
sS'rand_range'
p87
F0.25
sS'rate'
p88
F0.10000000000000001
sS'seed'
p89
I18
sS'time'
p90
S'05/25 at 22:36:56'
p91
sS'hidden'
p92
I80
sS'_id'
p93
S'english_d_18_80_1_95_1_25_696692'
p94
sS'momentum'
p95
F0.94999999999999996
sS'outcoding'
p96
(dp97
S'1'
S'41'
p98
sS'0'
S'14'
p99
sS'3'
S'23'
p100
sS'2'
S'22'
p101
sS'5'
S'43'
p102
sS'4'
S'24'
p103
sS'7'
S'8'
sS'6'
S'9'
sS'9'
S'11'
p104
sS'8'
S'4'
sS'A'
S'5'
sS'E'
S'3'
sS'D'
S'40'
p105
sS'G'
S'34'
p106
sS'O'
S'13'
p107
sS'N'
S'38'
p108
sS'Q'
S'0'
sS'S'
S'27'
p109
sS'R'
S'35'
p110
sS'U'
S'12'
p111
sS'T'
S'42'
p112
sS'Y'
S'7'
sS'Z'
S'29'
p113
sS'b'
S'19'
p114
sS'e'
S'2'
sS'd'
S'20'
p115
sS'g'
S'21'
p116
sS'f'
S'25'
p117
sS'i'
S'1'
sS'h'
S'30'
p118
sS'k'
S'18'
p119
sS'j'
S'32'
p120
sS'm'
S'36'
p121
sS'l'
S'39'
p122
sS'o'
S'15'
p123
sS'n'
S'37'
p124
sS'p'
S'16'
p125
sS's'
S'26'
p126
sS'r'
S'33'
p127
sS'u'
S'10'
p128
sS't'
S'17'
p129
sS'w'
S'44'
p130
sS'v'
S'31'
p131
sS'y'
S'6'
sS'z'
S'28'
p132
ssb.