ccopy_reg
_reconstructor
p1
(c__main__
Network
p2
c__builtin__
object
p3
NtRp4
(dp5
S'lang'
p6
S'english'
p7
sS'segmentation_results'
p8
ccollections
OrderedDict
p9
((lp10
(lp11
S'boundary_precision'
p12
aF0.64553314121037464
aa(lp13
S'boundary_recall'
p14
aF0.82352941176470584
aa(lp15
S'boundary_F'
p16
aF0.72374798061389334
aa(lp17
S'word_precision'
p18
aF0.36599423631123917
aa(lp19
S'word_recall'
p20
aF0.46691176470588236
aa(lp21
S'word_F'
p22
aF0.41033925686591272
aatRp23
sS'num_train'
p24
I696692
sS'incoding'
p25
(dp26
S'1'
S'41'
p27
sS'0'
S'14'
p28
sS'3'
S'23'
p29
sS'2'
S'22'
p30
sS'5'
S'43'
p31
sS'4'
S'24'
p32
sS'7'
S'8'
sS'6'
S'9'
sS'9'
S'11'
p33
sS'8'
S'4'
sS'A'
S'5'
sS'E'
S'3'
sS'D'
S'40'
p34
sS'G'
S'34'
p35
sS'O'
S'13'
p36
sS'N'
S'38'
p37
sS'Q'
S'0'
sS'S'
S'27'
p38
sS'R'
S'35'
p39
sS'U'
S'12'
p40
sS'T'
S'42'
p41
sS'Y'
S'7'
sS'Z'
S'29'
p42
sS'b'
S'19'
p43
sS'e'
S'2'
sS'd'
S'20'
p44
sS'g'
S'21'
p45
sS'f'
S'25'
p46
sS'i'
S'1'
sS'h'
S'30'
p47
sS'k'
S'18'
p48
sS'j'
S'32'
p49
sS'm'
S'36'
p50
sS'l'
S'39'
p51
sS'o'
S'15'
p52
sS'n'
S'37'
p53
sS'p'
S'16'
p54
sS's'
S'26'
p55
sS'r'
S'33'
p56
sS'u'
S'10'
p57
sS't'
S'17'
p58
sS'w'
S'44'
p59
sS'v'
S'31'
p60
sS'y'
S'6'
sS'z'
S'28'
p61
ssS'experiment_results'
p62
(dp63
S'vocoid_errors'
p64
(lp65
F43.456209999999999
aF21.459040000000002
aF20.668699999999998
aF32.213650000000001
aF18.40457
aF19.513770000000001
aF13.656769999999998
aF45.243399999999994
aF30.998530000000002
aF11.570379999999998
aF14.96711
aF9.0519600000000011
aF28.953740000000003
aF14.814789999999999
aF24.8005
aF9.4168800000000008
aF8.8151600000000006
aF14.94519
aF7.0718299999999994
aF32.247529999999998
aF24.12022
aF31.347049999999999
aF13.043520000000001
aF17.36074
aF21.662310000000002
aF7.03301
aF18.8767
aF17.18591
aF17.715070000000001
aF7.2164000000000001
aF7.0694300000000005
aF45.756570000000004
aF12.77871
aF30.092639999999999
aF11.44326
aF8.1340800000000009
aF5.0319599999999998
aF17.03445
aF16.455590000000001
aF7.2570499999999996
aF16.26144
aF4.6982499999999998
aF25.574290000000005
aF11.852449999999999
aF6.0894499999999994
aF22.967450000000003
aF10.69313
aF10.56443
aF8.3091100000000004
aF10.557880000000001
aF5.5290300000000006
aF13.660030000000001
aF12.46227
aF5.10494
aF31.682570000000002
aF10.742539999999998
aF9.4397500000000001
aF17.43411
aF10.184699999999999
aF10.235319999999998
aF24.489600000000003
aF12.563089999999999
aF10.327869999999999
aF14.125769999999999
aF8.8831699999999998
aF15.87078
aF18.281680000000001
aF15.409469999999999
aF15.902430000000003
aF7.7703399999999991
aF10.479000000000001
aF11.581459999999998
asS'vocoid_reaction'
p66
F6.0336058695031056
sS'contoid_accuracy'
p67
F0.61111111111111116
sS'vocoid_all_rts'
p68
(lp69
F1.475536398545813
aF2.2902805988765644
aF17.092652362062726
aF0.93235919754655672
aF1.0955471828249215
aF2.0303010067369387
aF1.5477998719848358
aF1.1121368052512999
aF1.938028851408558
aF0.78089904153608436
aF3.8375933846513615
aF3.521277581406554
aF0.98074822445366505
aF10.664426096676701
aF1.1873632564886791
aF0.68273333205814657
aF1.2380594700336667
aF2.9580349210378403
aF0.91924300707603168
aF1.2889349831603709
aF0.90631088825834394
aF1.3637653550835744
aF0.86079215546865728
aF82.585703185703011
aF4.1949576879805397
aF1.1799938506948715
aF1.1938576902218603
aF1.0130145467795413
aF1.6808012148564739
aF201.6991307783542
aF1.5533752120276587
aF3.2193633323678874
aF1.7712744414756978
aF5.865022056186695
aF1.4555157407259383
aF10.005106761243065
asS'contoid_all_rts'
p70
(lp71
F1.4250111480079375
aF0.73922152107602868
aF1.7663203403360033
aF1.4804079330962319
aF1.9429803465363145
aF1.9849066250658733
aF1.1046916427138262
aF0.79180023282085976
aF2.5504060629229675
aF1.7479851948793197
aF1.1927295456788498
aF0.89229354696527108
aF0.87725043074251374
aF1.4015926925555544
aF3.4594484487621422
aF18.977196276304461
aF0.85326272076403464
aF3.9558792824716216
aF0.9533418013348115
aF1.0239189821051655
aF1.1093528129140351
aF0.90655515186934466
aF0.83864871033796518
aF1.628994991408621
aF6.107294417759987
aF3.7400661752823274
aF2.0877601462027049
aF0.83540216183408766
aF0.90693321129450211
aF2.1532366429524337
aF5.7848152720484212
aF1.069933335143932
aF12.211182216234409
aF2.0712123606355894
aF2.329300546432564
aF6.1518679599387092
asS'contoid_errors'
p72
(lp73
F39.41366
aF18.939149999999998
aF11.460450000000002
aF59.367720000000006
aF15.02308
aF26.886650000000003
aF22.323320000000002
aF45.092740000000006
aF39.312000000000005
aF23.220179999999999
aF28.480309999999999
aF17.018989999999999
aF26.62445
aF10.032820000000001
aF29.284839999999999
aF6.6150499999999992
aF14.964129999999997
aF22.262259999999998
aF21.646740000000001
aF38.992089999999997
aF25.726949999999999
aF10.528449999999999
aF4.9663500000000003
aF17.626129999999996
aF15.147620000000002
aF4.1491699999999998
aF20.86186
aF9.8911299999999986
aF15.79325
aF11.804499999999999
aF29.87724
aF28.34328
aF9.7385099999999998
aF37.305840000000003
aF14.93887
aF11.586250000000001
aF6.1744700000000003
aF19.794370000000001
aF25.226009999999999
aF8.6726299999999998
aF14.35868
aF37.922499999999999
aF23.875049999999998
aF6.9009200000000002
aF7.2254800000000001
aF28.561690000000006
aF7.7203499999999998
aF14.558599999999998
aF13.934850000000001
aF11.825839999999999
aF11.829190000000001
aF15.4801
aF8.3967899999999993
aF5.1519799999999991
aF30.583179999999999
aF7.68133
aF6.7934000000000001
aF23.487539999999996
aF10.99817
aF6.8529799999999996
aF12.285980000000002
aF14.610750000000001
aF5.4561199999999994
aF15.02938
aF9.0403299999999991
aF9.8122699999999998
aF21.96651
aF13.423259999999999
aF19.918870000000002
aF12.878660000000002
aF15.75023
aF18.536960000000001
asS'contoid_reaction'
p74
F2.3442633085717244
sS'vocoid_accuracy'
p75
F0.69444444444444442
ssS'ticks'
p76
I1
sS'distributed'
p77
I00
sS'rand_range'
p78
F0.25
sS'rate'
p79
F0.10000000000000001
sS'seed'
p80
I15
sS'time'
p81
S'05/25 at 22:12:31'
p82
sS'hidden'
p83
I80
sS'_id'
p84
S'english_l_15_80_1_95_1_25_696692'
p85
sS'momentum'
p86
F0.94999999999999996
sS'outcoding'
p87
g26
sb.