ccopy_reg
_reconstructor
p1
(c__main__
Network
p2
c__builtin__
object
p3
NtRp4
(dp5
S'lang'
p6
S'english'
p7
sS'segmentation_results'
p8
ccollections
OrderedDict
p9
((lp10
(lp11
S'boundary_precision'
p12
aF0.5911764705882353
aa(lp13
S'boundary_recall'
p14
aF0.73897058823529416
aa(lp15
S'boundary_F'
p16
aF0.65686274509803932
aa(lp17
S'word_precision'
p18
aF0.28235294117647058
aa(lp19
S'word_recall'
p20
aF0.35294117647058826
aa(lp21
S'word_F'
p22
aF0.31372549019607843
aatRp23
sS'num_train'
p24
I696692
sS'incoding'
p25
(dp26
S'1'
S'0 0 0 0 0 1 0 0 1 0 0 0 0 0 0 0'
p27
sS'0'
S'0 1 1 0 0 1 0 0 0 0 0 0 0 0 0 0'
p28
sS'3'
S'0 0 0 1 0 1 0 0 1 0 0 0 0 0 0 0'
p29
sS'2'
S'0 0 0 1 0 1 0 1 0 0 0 0 0 0 0 0'
p30
sS'5'
S'0 1 1 0 0 1 0 0 0 0 0 1 0 0 0 0'
p31
sS'4'
S'0 0 0 1 0 1 0 0 0 0 1 0 0 0 0 0'
p32
sS'7'
S'0 1 1 0 0 1 0 1 0 0 0 0 0 1 0 0'
p33
sS'6'
S'0 1 1 0 0 1 0 1 0 0 0 1 0 1 0 0'
p34
sS'9'
S'0 1 1 0 0 1 0 1 0 0 1 1 0 0 0 0'
p35
sS'8'
S'0 1 1 0 0 1 0 0 0 0 0 1 0 1 0 0'
p36
sS'A'
S'0 1 1 0 0 1 0 0 0 0 0 1 1 0 0 0'
p37
sS'E'
S'0 1 1 0 0 1 0 0 0 0 0 0 0 1 0 0'
p38
sS'D'
S'0 1 1 0 0 1 0 0 1 0 0 0 1 0 0 0'
p39
sS'G'
S'0 0 0 0 0 1 0 0 1 0 0 0 0 0 0 1'
p40
sS'O'
S'0 1 1 0 0 1 0 1 0 0 0 1 1 0 0 0'
p41
sS'N'
S'0 0 1 1 0 1 0 0 0 0 1 0 0 0 0 0'
p42
sS'Q'
S'1'
sS'S'
S'0 0 0 0 0 0 1 0 0 1 0 0 0 1 1 0'
p43
sS'R'
S'0 1 1 0 0 1 0 0 1 0 0 0 0 0 0 1'
p44
sS'U'
S'0 1 1 0 0 1 0 1 0 0 0 1 0 0 0 0'
p45
sS'T'
S'0 0 0 0 0 0 1 0 1 0 0 0 0 0 0 0'
p46
sS'Y'
S'0 1 1 0 0 1 0 1 0 1 0 0 0 1 0 0'
p47
sS'Z'
S'0 0 0 0 0 1 0 0 0 1 0 0 0 1 1 0'
p48
sS'b'
S'0 0 0 1 0 0 0 1 0 0 0 0 0 0 0 0'
p49
sS'e'
S'0 1 1 0 0 1 0 0 0 1 0 0 0 1 0 0'
p50
sS'd'
S'0 0 0 1 0 0 0 0 1 0 0 0 0 0 0 0'
p51
sS'g'
S'0 0 0 1 0 0 0 0 0 0 1 0 0 0 0 0'
p52
sS'f'
S'0 0 0 0 0 0 1 1 0 0 0 0 0 0 0 0'
p53
sS'i'
S'0 1 1 0 0 1 0 0 0 1 0 0 1 1 0 0'
p54
sS'h'
S'0 0 0 0 0 0 1 0 0 0 0 0 0 0 0 0'
p55
sS'k'
S'0 0 0 1 0 0 1 0 0 0 1 0 0 0 0 0'
p56
sS'j'
S'0 1 1 0 0 1 0 0 0 1 0 0 1 1 0 0'
p57
sS'm'
S'0 0 1 1 0 1 0 1 0 0 0 0 0 0 0 0'
p58
sS'l'
S'0 0 1 0 1 1 0 0 1 0 0 0 1 0 0 0'
p59
sS'o'
S'0 1 1 0 0 1 0 1 0 0 1 1 1 0 0 0'
p60
sS'n'
S'0 0 1 1 0 1 0 0 1 0 0 0 0 0 0 0'
p61
sS'p'
S'0 0 0 1 0 0 1 1 0 0 0 0 0 0 0 0'
p62
sS's'
S'0 0 0 0 0 0 1 0 1 0 0 0 0 0 1 0'
p63
sS'r'
S'0 0 0 0 0 1 0 0 0 0 0 1 0 0 0 0'
p64
sS'u'
S'0 1 1 0 0 1 0 1 0 0 1 0 0 0 0 0'
p65
sS't'
S'0 0 0 1 0 0 1 0 1 0 0 0 0 0 1 0'
p66
sS'w'
S'0 1 1 0 0 1 0 1 0 0 1 0 0 0 0 0'
p67
sS'v'
S'0 0 0 0 0 1 0 1 0 0 0 0 0 0 0 0'
p68
sS'y'
S'0 1 1 0 0 1 0 1 0 1 0 0 1 1 0 0'
p69
sS'z'
S'0 0 0 0 0 1 0 0 1 0 0 0 0 0 1 0'
p70
ssS'experiment_results'
p71
(dp72
S'vocoid_errors'
p73
(lp74
F31.504369999999998
aF33.050060000000002
aF27.232239999999997
aF25.50281
aF19.92398
aF23.26849
aF28.926009999999998
aF19.62012
aF25.217890000000001
aF26.01464
aF22.913649999999997
aF23.828890000000001
aF18.475279999999998
aF18.136710000000001
aF13.780359999999998
aF12.252050000000001
aF21.940709999999999
aF18.889199999999999
aF26.249649999999999
aF19.593470000000003
aF20.762050000000002
aF21.683489999999999
aF17.413310000000003
aF21.48657
aF14.512760000000002
aF12.63725
aF11.280199999999999
aF23.815830000000002
aF23.040100000000002
aF28.583110000000001
aF21.70158
aF21.075090000000003
aF17.33972
aF21.540130000000001
aF22.191880000000001
aF15.81292
aF19.774939999999997
aF13.819640000000001
aF11.16905
aF26.716659999999997
aF19.276599999999998
aF23.37321
aF21.408059999999999
aF15.837879999999998
aF17.04372
aF23.196529999999999
aF12.105970000000001
aF21.767760000000003
aF23.594889999999999
aF14.472659999999998
aF21.58305
aF12.39151
aF17.478149999999999
aF11.945830000000001
aF20.984380000000002
aF15.88283
aF12.32498
aF24.46095
aF22.351939999999999
aF21.25253
aF21.400209999999998
aF15.416350000000001
aF13.31734
aF12.334579999999999
aF17.38862
aF20.546889999999998
aF22.662779999999994
aF12.912199999999999
aF24.058720000000001
aF23.719100000000001
aF22.062180000000001
aF23.709089999999996
asS'vocoid_reaction'
p75
F12.511794536235843
sS'contoid_accuracy'
p76
F0.63888888888888884
sS'vocoid_all_rts'
p77
(lp78
F20.882075319113092
aF15.246367300208764
aF6.4572194432069283
aF2.6083550310609738
aF32.150944461876399
aF25.535673703072295
aF54.068567799864582
aF8.5167308988359824
aF6.690115713204281
aF3.4436508628071976
aF23.032177895468042
aF4.7750303196947934
aF7.238033921440028
aF1.3998510645256756
aF4.6566044441557937
aF34.139946367859196
aF4.6281017805404696
aF2.9789181935613325
aF2.8205615166322455
aF1.2183772940021007
aF5.2055004015515252
aF3.343333608608698
aF3.2700709106895882
aF1.7529738278310747
aF2.086526540111354
aF1.8481429662493987
aF2.6592803742372104
aF3.6133341827483791
aF1.5155743628239027
aF19.830850183280141
aF3.0763219727734286
aF13.050958524970479
aF6.0057420676509636
aF1.8242494292647213
aF70.340115423119954
aF13.896105433812457
asS'contoid_all_rts'
p79
(lp80
F18.572417517276076
aF2.3505816522029406
aF11.698657418030139
aF26.945376734777977
aF9.8448171015651926
aF12.417001640029541
aF6.946962048652864
aF6.003257492232132
aF1.9765297420765187
aF2.8789103537566461
aF5.0918389754489732
aF3.019340760412732
aF24.483224105998016
aF1.6163112783292002
aF1.5447516238485641
aF37.999808801504081
aF2.158484561102842
aF2.3236139609270952
aF2.312352986204544
aF1.1842818956646437
aF1.7957488470213314
aF2.2082444718165286
aF1.5222377311804078
aF2.6205289384850987
aF2.1341588532312734
aF1.7222553405648937
aF12.63077556556698
aF1.7113382402447423
aF1.3251260685170405
aF5.4797550317724015
aF2.1479904154169831
aF159.98914565826001
aF607.82986255725439
aF1.6968340362475776
aF3.7237168180952676
aF21.607468709268428
asS'contoid_errors'
p81
(lp82
F22.25564
aF23.487110000000001
aF25.87396
aF16.797229999999999
aF20.734180000000002
aF19.034470000000002
aF29.30782
aF28.23996
aF37.765410000000003
aF34.114750000000001
aF24.100800000000003
aF22.234979999999997
aF16.965520000000001
aF14.687339999999999
aF14.27426
aF12.079319999999999
aF24.48171
aF14.596220000000001
aF33.352919999999997
aF23.482010000000002
aF26.99231
aF22.165219999999998
aF16.544409999999999
aF23.111370000000001
aF14.02858
aF13.46706
aF12.42882
aF23.562650000000001
aF15.201460000000001
aF29.75177
aF24.163250000000001
aF23.535630000000001
aF15.231969999999999
aF24.416239999999998
aF21.962859999999999
aF14.18458
aF21.67652
aF13.968910000000001
aF11.404549999999999
aF28.070999999999998
aF13.85679
aF24.550830000000001
aF23.08643
aF14.56193
aF13.534079999999999
aF26.773739999999997
aF12.532220000000001
aF18.442169999999997
aF25.520890000000001
aF15.83245
aF23.932489999999998
aF13.163029999999999
aF13.552930000000002
aF12.520779999999998
aF21.742739999999998
aF11.910349999999999
aF13.257019999999999
aF29.323680000000003
aF18.16525
aF21.81307
aF22.83145
aF14.209270000000002
aF13.750710000000002
aF13.66503
aF14.606
aF14.581989999999999
aF23.127389999999998
aF12.599789999999999
aF30.388839999999998
aF23.194030000000001
aF24.763460000000002
aF23.643319999999999
asS'contoid_reaction'
p83
F41.821704406658647
sS'vocoid_accuracy'
p84
F0.55555555555555558
ssS'ticks'
p85
I1
sS'distributed'
p86
I01
sS'rand_range'
p87
F0.25
sS'rate'
p88
F0.10000000000000001
sS'seed'
p89
I13
sS'time'
p90
S'05/25 at 21:48:15'
p91
sS'hidden'
p92
I80
sS'_id'
p93
S'english_d_13_80_1_95_1_25_696692'
p94
sS'momentum'
p95
F0.94999999999999996
sS'outcoding'
p96
(dp97
S'1'
S'41'
p98
sS'0'
S'14'
p99
sS'3'
S'23'
p100
sS'2'
S'22'
p101
sS'5'
S'43'
p102
sS'4'
S'24'
p103
sS'7'
S'8'
sS'6'
S'9'
sS'9'
S'11'
p104
sS'8'
S'4'
sS'A'
S'5'
sS'E'
S'3'
sS'D'
S'40'
p105
sS'G'
S'34'
p106
sS'O'
S'13'
p107
sS'N'
S'38'
p108
sS'Q'
S'0'
sS'S'
S'27'
p109
sS'R'
S'35'
p110
sS'U'
S'12'
p111
sS'T'
S'42'
p112
sS'Y'
S'7'
sS'Z'
S'29'
p113
sS'b'
S'19'
p114
sS'e'
S'2'
sS'd'
S'20'
p115
sS'g'
S'21'
p116
sS'f'
S'25'
p117
sS'i'
S'1'
sS'h'
S'30'
p118
sS'k'
S'18'
p119
sS'j'
S'32'
p120
sS'm'
S'36'
p121
sS'l'
S'39'
p122
sS'o'
S'15'
p123
sS'n'
S'37'
p124
sS'p'
S'16'
p125
sS's'
S'26'
p126
sS'r'
S'33'
p127
sS'u'
S'10'
p128
sS't'
S'17'
p129
sS'w'
S'44'
p130
sS'v'
S'31'
p131
sS'y'
S'6'
sS'z'
S'28'
p132
ssb.