ccopy_reg
_reconstructor
p1
(c__main__
Network
p2
c__builtin__
object
p3
NtRp4
(dp5
S'lang'
p6
S'english'
p7
sS'segmentation_results'
p8
ccollections
OrderedDict
p9
((lp10
(lp11
S'boundary_precision'
p12
aF0.59195402298850575
aa(lp13
S'boundary_recall'
p14
aF0.75735294117647056
aa(lp15
S'boundary_F'
p16
aF0.6645161290322581
aa(lp17
S'word_precision'
p18
aF0.29310344827586204
aa(lp19
S'word_recall'
p20
aF0.375
aa(lp21
S'word_F'
p22
aF0.32903225806451608
aatRp23
sS'num_train'
p24
I696692
sS'incoding'
p25
(dp26
S'1'
S'0 0 0 0 0 1 0 0 1 0 0 0 0 0 0 0'
p27
sS'0'
S'0 1 1 0 0 1 0 0 0 0 0 0 0 0 0 0'
p28
sS'3'
S'0 0 0 1 0 1 0 0 1 0 0 0 0 0 0 0'
p29
sS'2'
S'0 0 0 1 0 1 0 1 0 0 0 0 0 0 0 0'
p30
sS'5'
S'0 1 1 0 0 1 0 0 0 0 0 1 0 0 0 0'
p31
sS'4'
S'0 0 0 1 0 1 0 0 0 0 1 0 0 0 0 0'
p32
sS'7'
S'0 1 1 0 0 1 0 1 0 0 0 0 0 1 0 0'
p33
sS'6'
S'0 1 1 0 0 1 0 1 0 0 0 1 0 1 0 0'
p34
sS'9'
S'0 1 1 0 0 1 0 1 0 0 1 1 0 0 0 0'
p35
sS'8'
S'0 1 1 0 0 1 0 0 0 0 0 1 0 1 0 0'
p36
sS'A'
S'0 1 1 0 0 1 0 0 0 0 0 1 1 0 0 0'
p37
sS'E'
S'0 1 1 0 0 1 0 0 0 0 0 0 0 1 0 0'
p38
sS'D'
S'0 1 1 0 0 1 0 0 1 0 0 0 1 0 0 0'
p39
sS'G'
S'0 0 0 0 0 1 0 0 1 0 0 0 0 0 0 1'
p40
sS'O'
S'0 1 1 0 0 1 0 1 0 0 0 1 1 0 0 0'
p41
sS'N'
S'0 0 1 1 0 1 0 0 0 0 1 0 0 0 0 0'
p42
sS'Q'
S'1'
sS'S'
S'0 0 0 0 0 0 1 0 0 1 0 0 0 1 1 0'
p43
sS'R'
S'0 1 1 0 0 1 0 0 1 0 0 0 0 0 0 1'
p44
sS'U'
S'0 1 1 0 0 1 0 1 0 0 0 1 0 0 0 0'
p45
sS'T'
S'0 0 0 0 0 0 1 0 1 0 0 0 0 0 0 0'
p46
sS'Y'
S'0 1 1 0 0 1 0 1 0 1 0 0 0 1 0 0'
p47
sS'Z'
S'0 0 0 0 0 1 0 0 0 1 0 0 0 1 1 0'
p48
sS'b'
S'0 0 0 1 0 0 0 1 0 0 0 0 0 0 0 0'
p49
sS'e'
S'0 1 1 0 0 1 0 0 0 1 0 0 0 1 0 0'
p50
sS'd'
S'0 0 0 1 0 0 0 0 1 0 0 0 0 0 0 0'
p51
sS'g'
S'0 0 0 1 0 0 0 0 0 0 1 0 0 0 0 0'
p52
sS'f'
S'0 0 0 0 0 0 1 1 0 0 0 0 0 0 0 0'
p53
sS'i'
S'0 1 1 0 0 1 0 0 0 1 0 0 1 1 0 0'
p54
sS'h'
S'0 0 0 0 0 0 1 0 0 0 0 0 0 0 0 0'
p55
sS'k'
S'0 0 0 1 0 0 1 0 0 0 1 0 0 0 0 0'
p56
sS'j'
S'0 1 1 0 0 1 0 0 0 1 0 0 1 1 0 0'
p57
sS'm'
S'0 0 1 1 0 1 0 1 0 0 0 0 0 0 0 0'
p58
sS'l'
S'0 0 1 0 1 1 0 0 1 0 0 0 1 0 0 0'
p59
sS'o'
S'0 1 1 0 0 1 0 1 0 0 1 1 1 0 0 0'
p60
sS'n'
S'0 0 1 1 0 1 0 0 1 0 0 0 0 0 0 0'
p61
sS'p'
S'0 0 0 1 0 0 1 1 0 0 0 0 0 0 0 0'
p62
sS's'
S'0 0 0 0 0 0 1 0 1 0 0 0 0 0 1 0'
p63
sS'r'
S'0 0 0 0 0 1 0 0 0 0 0 1 0 0 0 0'
p64
sS'u'
S'0 1 1 0 0 1 0 1 0 0 1 0 0 0 0 0'
p65
sS't'
S'0 0 0 1 0 0 1 0 1 0 0 0 0 0 1 0'
p66
sS'w'
S'0 1 1 0 0 1 0 1 0 0 1 0 0 0 0 0'
p67
sS'v'
S'0 0 0 0 0 1 0 1 0 0 0 0 0 0 0 0'
p68
sS'y'
S'0 1 1 0 0 1 0 1 0 1 0 0 1 1 0 0'
p69
sS'z'
S'0 0 0 0 0 1 0 0 1 0 0 0 0 0 1 0'
p70
ssS'experiment_results'
p71
(dp72
S'vocoid_errors'
p73
(lp74
F33.152729999999998
aF33.193719999999999
aF26.08032
aF25.485410000000002
aF20.228290000000001
aF24.598790000000001
aF30.41619
aF20.809419999999999
aF23.901070000000001
aF24.393510000000003
aF23.792989999999996
aF22.92483
aF18.708720000000003
aF18.82648
aF14.131460000000001
aF12.536630000000001
aF22.071089999999998
aF19.204249999999998
aF26.364820000000002
aF19.430540000000001
aF20.72972
aF21.738679999999999
aF17.475850000000001
aF21.775850000000002
aF14.648859999999999
aF12.668119999999998
aF11.311699999999998
aF23.601450000000003
aF22.940179999999998
aF28.523110000000003
aF21.745449999999998
aF21.033719999999999
aF17.258099999999999
aF21.554559999999995
aF22.199689999999997
aF15.79223
aF19.77722
aF13.784390000000002
aF11.16844
aF26.712220000000002
aF19.265849999999997
aF23.34928
aF21.411830000000002
aF15.839820000000001
aF17.05264
aF23.196390000000005
aF12.10561
aF21.756490000000003
aF23.591270000000002
aF14.472520000000001
aF21.585239999999999
aF12.385639999999999
aF17.476510000000001
aF11.94275
aF20.984580000000001
aF15.881079999999999
aF12.3253
aF24.454689999999999
aF22.348079999999996
aF21.249969999999998
aF21.395440000000001
aF15.412519999999999
aF13.315010000000001
aF12.332979999999999
aF17.38805
aF20.545969999999997
aF22.660840000000004
aF12.911110000000001
aF24.055480000000003
aF23.71679
aF22.059449999999998
aF23.706769999999999
asS'vocoid_reaction'
p75
F11.718239815739217
sS'contoid_accuracy'
p76
F0.66666666666666674
sS'vocoid_all_rts'
p77
(lp78
F809.30043913148074
aF43.33910171286422
aF5.1283697517446516
aF2.6661203505444599
aF49.036004386320982
aF26.90622696277196
aF159.37160326087368
aF8.3607939404199829
aF7.1987519359294563
aF3.3020991364640593
aF21.045631144941364
aF4.5641511627906972
aF6.895650110564735
aF1.4204174210215825
aF4.6089857834506214
aF30.052948449552524
aF4.5168184970883036
aF2.9646630646153085
aF2.8001470090091001
aF1.2185150587566216
aF5.2180556541926713
aF3.3427479491242842
aF3.2756077314343823
aF1.7543529709207863
aF2.0871166552433174
aF1.846323753206661
aF2.6581619007690969
aF3.6118017047124504
aF1.5161516778667354
aF19.851403775578067
aF3.0760865931685522
aF13.058659104100666
aF6.0061717839590658
aF1.8242530818802156
aF70.525067170568292
aF13.89111405191462
asS'contoid_all_rts'
p79
(lp80
F5.2880113377891256
aF3.1650538323506776
aF142.00738457126215
aF6.7424314837093542
aF33.317316419826994
aF5.5165386252843032
aF17.511969438818721
aF6.1467722727783363
aF2.2445930616817527
aF7.4234084149083204
aF58.483975572211214
aF2.847350882945205
aF33.483023656737963
aF1.6761782324081667
aF1.6127644092401592
aF38.200988825468173
aF2.0948278213934186
aF2.2956201955379343
aF2.3138681808182304
aF1.1740207105895144
aF1.785722517351495
aF2.20229246253865
aF1.5240689129066254
aF2.6280871239429695
aF2.1430790831374051
aF1.7258437738518535
aF12.628979133164156
aF1.7078149633676767
aF1.3233785134978098
aF5.4830671768380723
aF2.148260629486471
aF159.51955762514783
aF605.37053941907016
aF1.6969400815864213
aF3.720056820390913
aF21.562680423393555
asS'contoid_errors'
p81
(lp82
F26.464640000000003
aF21.892319999999998
aF21.732010000000002
aF15.802489999999999
aF19.737449999999999
aF19.876930000000002
aF30.302759999999999
aF35.157080000000001
aF30.55124
aF29.647820000000003
aF31.373000000000001
aF26.158539999999999
aF15.87574
aF16.808949999999999
aF14.79073
aF12.565479999999999
aF23.420929999999998
aF14.887449999999999
aF28.370160000000006
aF24.789610000000003
aF23.37358
aF22.977310000000003
aF16.681049999999999
aF23.787379999999999
aF14.192669999999998
aF13.775029999999999
aF12.69408
aF23.486729999999998
aF15.36889
aF29.180340000000001
aF24.070080000000001
aF23.448129999999999
aF15.199059999999998
aF24.729280000000003
aF21.885960000000001
aF14.057300000000001
aF21.616669999999999
aF13.934479999999999
aF11.355509999999999
aF28.202930000000002
aF13.83422
aF24.594099999999997
aF23.08155
aF14.540080000000001
aF13.518150000000002
aF26.718579999999996
aF12.54518
aF18.44023
aF25.451159999999998
aF15.8218
aF23.913129999999999
aF13.169730000000001
aF13.552519999999998
aF12.52026
aF21.748280000000001
aF11.897690000000001
aF13.249700000000001
aF29.341569999999997
aF18.154409999999999
aF21.797629999999998
aF22.828960000000002
aF14.208600000000001
aF13.745679999999998
aF13.65978
aF14.60148
aF14.57738
aF23.120180000000001
aF12.59637
aF30.391330000000004
aF23.189690000000006
aF24.762270000000001
aF23.63991
asS'contoid_reaction'
p83
F14.365994912600092
sS'vocoid_accuracy'
p84
F0.61111111111111116
ssS'ticks'
p85
I1
sS'distributed'
p86
I01
sS'rand_range'
p87
F0.25
sS'rate'
p88
F0.10000000000000001
sS'seed'
p89
I26
sS'time'
p90
S'05/25 at 23:54:33'
p91
sS'hidden'
p92
I80
sS'_id'
p93
S'english_d_26_80_1_95_1_25_696692'
p94
sS'momentum'
p95
F0.94999999999999996
sS'outcoding'
p96
(dp97
S'1'
S'41'
p98
sS'0'
S'14'
p99
sS'3'
S'23'
p100
sS'2'
S'22'
p101
sS'5'
S'43'
p102
sS'4'
S'24'
p103
sS'7'
S'8'
sS'6'
S'9'
sS'9'
S'11'
p104
sS'8'
S'4'
sS'A'
S'5'
sS'E'
S'3'
sS'D'
S'40'
p105
sS'G'
S'34'
p106
sS'O'
S'13'
p107
sS'N'
S'38'
p108
sS'Q'
S'0'
sS'S'
S'27'
p109
sS'R'
S'35'
p110
sS'U'
S'12'
p111
sS'T'
S'42'
p112
sS'Y'
S'7'
sS'Z'
S'29'
p113
sS'b'
S'19'
p114
sS'e'
S'2'
sS'd'
S'20'
p115
sS'g'
S'21'
p116
sS'f'
S'25'
p117
sS'i'
S'1'
sS'h'
S'30'
p118
sS'k'
S'18'
p119
sS'j'
S'32'
p120
sS'm'
S'36'
p121
sS'l'
S'39'
p122
sS'o'
S'15'
p123
sS'n'
S'37'
p124
sS'p'
S'16'
p125
sS's'
S'26'
p126
sS'r'
S'33'
p127
sS'u'
S'10'
p128
sS't'
S'17'
p129
sS'w'
S'44'
p130
sS'v'
S'31'
p131
sS'y'
S'6'
sS'z'
S'28'
p132
ssb.