ccopy_reg
_reconstructor
p1
(c__main__
Network
p2
c__builtin__
object
p3
NtRp4
(dp5
S'lang'
p6
S'english'
p7
sS'segmentation_results'
p8
ccollections
OrderedDict
p9
((lp10
(lp11
S'boundary_precision'
p12
aF0.62235649546827798
aa(lp13
S'boundary_recall'
p14
aF0.75735294117647056
aa(lp15
S'boundary_F'
p16
aF0.68325041459369829
aa(lp17
S'word_precision'
p18
aF0.34743202416918428
aa(lp19
S'word_recall'
p20
aF0.42279411764705882
aa(lp21
S'word_F'
p22
aF0.38142620232172475
aatRp23
sS'num_train'
p24
I696692
sS'incoding'
p25
(dp26
S'1'
S'41'
p27
sS'0'
S'14'
p28
sS'3'
S'23'
p29
sS'2'
S'22'
p30
sS'5'
S'43'
p31
sS'4'
S'24'
p32
sS'7'
S'8'
sS'6'
S'9'
sS'9'
S'11'
p33
sS'8'
S'4'
sS'A'
S'5'
sS'E'
S'3'
sS'D'
S'40'
p34
sS'G'
S'34'
p35
sS'O'
S'13'
p36
sS'N'
S'38'
p37
sS'Q'
S'0'
sS'S'
S'27'
p38
sS'R'
S'35'
p39
sS'U'
S'12'
p40
sS'T'
S'42'
p41
sS'Y'
S'7'
sS'Z'
S'29'
p42
sS'b'
S'19'
p43
sS'e'
S'2'
sS'd'
S'20'
p44
sS'g'
S'21'
p45
sS'f'
S'25'
p46
sS'i'
S'1'
sS'h'
S'30'
p47
sS'k'
S'18'
p48
sS'j'
S'32'
p49
sS'm'
S'36'
p50
sS'l'
S'39'
p51
sS'o'
S'15'
p52
sS'n'
S'37'
p53
sS'p'
S'16'
p54
sS's'
S'26'
p55
sS'r'
S'33'
p56
sS'u'
S'10'
p57
sS't'
S'17'
p58
sS'w'
S'44'
p59
sS'v'
S'31'
p60
sS'y'
S'6'
sS'z'
S'28'
p61
ssS'experiment_results'
p62
(dp63
S'vocoid_errors'
p64
(lp65
F41.346040000000002
aF20.379550000000002
aF19.990819999999999
aF27.808250000000001
aF23.693150000000003
aF17.418999999999997
aF20.089579999999998
aF50.786029999999997
aF40.163820000000001
aF12.15471
aF26.58221
aF20.14697
aF25.696159999999999
aF10.24469
aF20.09291
aF6.0428500000000005
aF5.463239999999999
aF16.572490000000002
aF17.036110000000001
aF40.163039999999995
aF33.782910000000001
aF12.900510000000001
aF9.4059299999999997
aF22.912879999999998
aF19.76728
aF6.1453199999999999
aF14.24995
aF10.757460000000002
aF16.695460000000001
aF14.30659
aF16.174769999999999
aF34.203240000000001
aF15.538250000000001
aF25.798580000000005
aF16.866810000000001
aF9.5472800000000007
aF18.8187
aF19.182009999999998
aF12.73269
aF8.4467999999999996
aF13.419550000000001
aF13.975389999999999
aF32.509999999999998
aF14.35548
aF5.9048400000000001
aF25.170209999999997
aF17.211919999999999
aF16.093450000000001
aF9.1616700000000009
aF16.282049999999998
aF16.688969999999998
aF13.56545
aF11.32592
aF5.56874
aF32.49532
aF24.259080000000001
aF5.3314900000000005
aF26.200949999999999
aF14.840939999999998
aF14.698140000000002
aF9.7827899999999985
aF13.833279999999998
aF8.1741799999999998
aF11.552860000000001
aF6.5293699999999992
aF10.397359999999999
aF29.139220000000002
aF19.303789999999999
aF23.504010000000001
aF6.4303299999999997
aF10.342830000000001
aF16.011069999999997
asS'vocoid_reaction'
p66
F5.414873242772031
sS'contoid_accuracy'
p67
F0.75
sS'vocoid_all_rts'
p68
(lp69
F1.4720058054543226
aF3.0572112574081243
aF3.2763123291601222
aF1.1544593918840778
aF0.933955595161717
aF3.6307255051870633
aF1.163023647588223
aF0.93009424870783486
aF0.99177397214033325
aF1.2366351694755857
aF1.1177695092518101
aF1.1963770503333471
aF0.95113331708505955
aF3.5801691629754151
aF6.4888524699962717
aF1.3971792947488058
aF2.014400608947275
aF1.8043569737401173
aF52.297913627480881
aF2.4708391955929807
aF24.642828871617816
aF1.2907386149564957
aF0.80650021255755799
aF14.888807925112001
aF1.7866827332249129
aF4.8430008452002902
aF1.4672686975220508
aF3.4454071275242111
aF0.75546851715377417
aF103.42815126050724
aF2.9152114929304846
aF2.9193412812104129
aF2.1880524510146095
aF2.4626788050954556
aF0.87662238017814531
aF2.3246986718981568
asS'contoid_all_rts'
p70
(lp71
F1.0447635764227354
aF1.1437347910771016
aF2.0283080623471816
aF1.6260289982644687
aF1.7693009911319775
aF0.82301698376050281
aF0.66933039721079557
aF1.1834902010185904
aF1.5079967038306066
aF1.7038486759910254
aF1.2575732988416326
aF1.1197018951218605
aF6.9058302683558095
aF0.79487658295771613
aF10.682480728801659
aF0.83136512050822209
aF0.97602736039953497
aF0.85858291290915334
aF0.81851373675192685
aF1.7646483021483019
aF5.2224094225978925
aF1.0449337983314309
aF0.67090322653186785
aF5.6904302003944895
aF2.1953761040238819
aF1.5786460557873638
aF1.8457992760803021
aF0.97608955782214435
aF1.9579767384397824
aF1.3352296559457437
aF1.8264332607704281
aF1.1599030477500931
aF2.8187747361274771
aF1.014210519364841
aF1.0962137779727952
aF16.392930088853397
asS'contoid_errors'
p72
(lp73
F62.010779999999997
aF21.868210000000001
aF12.98883
aF33.166129999999995
aF23.482900000000001
aF14.19491
aF24.356300000000001
aF45.986559999999997
aF34.453980000000001
aF19.271340000000002
aF40.885259999999995
aF9.9822100000000002
aF41.769159999999999
aF6.0485800000000003
aF22.451159999999998
aF9.1150800000000007
aF12.69717
aF25.293609999999997
aF18.982310000000002
aF34.750329999999998
aF22.0947
aF9.5235599999999998
aF11.331150000000001
aF29.615990000000004
aF27.1831
aF23.512599999999999
aF24.131320000000002
aF5.4953199999999995
aF16.709959999999999
aF18.351010000000002
aF7.3943000000000012
aF29.708960000000001
aF7.0762800000000006
aF21.941560000000003
aF22.897569999999998
aF6.0435599999999994
aF5.80741
aF24.04025
aF23.528790000000001
aF13.139189999999999
aF13.02552
aF10.74929
aF23.469799999999999
aF8.27834
aF4.2558799999999994
aF29.158159999999999
aF21.216089999999998
aF17.78885
aF12.613309999999998
aF20.053139999999999
aF10.505839999999999
aF20.24568
aF11.67197
aF6.6962799999999998
aF18.86131
aF6.0834200000000003
aF14.92853
aF25.167739999999998
aF15.270009999999999
aF6.9495200000000006
aF7.7079699999999995
aF13.519020000000001
aF6.2442600000000006
aF15.706649999999998
aF9.4267700000000012
aF13.492179999999999
aF20.637689999999999
aF7.0083500000000001
aF22.736069999999998
aF8.4923199999999994
aF16.293400000000002
aF15.328890000000001
asS'contoid_reaction'
p74
F1.7504703886849895
sS'vocoid_accuracy'
p75
F0.52777777777777779
ssS'ticks'
p76
I1
sS'distributed'
p77
I00
sS'rand_range'
p78
F0.25
sS'rate'
p79
F0.10000000000000001
sS'seed'
p80
I19
sS'time'
p81
S'05/25 at 22:51:24'
p82
sS'hidden'
p83
I80
sS'_id'
p84
S'english_l_19_80_1_95_1_25_696692'
p85
sS'momentum'
p86
F0.94999999999999996
sS'outcoding'
p87
g26
sb.